;--------------------------------------------------------
; File Created by SDCC : free open source ANSI-C Compiler
; Version 4.1.0 #12072 (MINGW32)
;--------------------------------------------------------
	.module bank2
	.optsdcc -mgbz80
	
;--------------------------------------------------------
; Public variables in this module
;--------------------------------------------------------
	.globl _manage_player
	.globl _manage_sound_chnls
	.globl _clear_all_projectiles
	.globl _anim_jump
	.globl _manage_machines
	.globl _manage_projectiles
	.globl _take_damage
	.globl _fire_bigbullet
	.globl _cooldown_enemy
	.globl _is_alive
	.globl _move_enemy
	.globl _place_machine
	.globl _set_machine_tile
	.globl _init_machine_props
	.globl _set_sprite_data
	.globl _set_bkg_tiles
	.globl _set_bkg_data
	.globl _wait_vbl_done
	.globl _stage1objs
	.globl _stage1road
	.globl _stingprops
	.globl _scorpgunprops
	.globl _scorpbossmap
	.globl _desertmap
	.globl _scorpbosstiles
	.globl _deserttiles
	.globl _hudmap
	.globl _cloudmap
	.globl _holeendmap
	.globl _holemap
	.globl _holestartmap
	.globl _goodroadmap
	.globl _projectiletiles
	.globl _playerspritetiles
	.globl _cloudtiles
	.globl _enemyspritetiles
	.globl _hudtiles
	.globl _bossspritetiles
	.globl _roadtiles
	.globl b_init_scorpboss_gun
	.globl _init_scorpboss_gun
	.globl b_init_scorpboss
	.globl _init_scorpboss
	.globl b_scorpboss_loop
	.globl _scorpboss_loop
;--------------------------------------------------------
; special function registers
;--------------------------------------------------------
;--------------------------------------------------------
; ram data
;--------------------------------------------------------
	.area _DATA
;--------------------------------------------------------
; absolute external ram data
;--------------------------------------------------------
	.area _DABS (ABS)
;--------------------------------------------------------
; global & static initialisations
;--------------------------------------------------------
	.area _HOME
	.area _GSINIT
	.area _GSFINAL
	.area _GSINIT
;--------------------------------------------------------
; Home
;--------------------------------------------------------
	.area _HOME
	.area _HOME
;--------------------------------------------------------
; code
;--------------------------------------------------------
	.area _CODE_2
;stages/stage1.c:49: void init_scorpboss_gun(UINT8 x, UINT8 y) BANKED {
;	---------------------------------
; Function init_scorpboss_gun
; ---------------------------------
	b_init_scorpboss_gun	= 2
_init_scorpboss_gun::
;stages/stage1.c:50: init_machine_props(x, y, scorpgunprops);
	ld	hl, #_scorpgunprops
	push	hl
	ldhl	sp,	#9
	ld	a, (hl)
	push	af
	inc	sp
	dec	hl
	ld	a, (hl)
	push	af
	inc	sp
	call	_init_machine_props
	add	sp, #4
;stages/stage1.c:51: set_machine_tile(crntenemy - 1, 127);
	ld	hl, #_crntenemy
	ld	a, (hl)
	add	a, #0xef
	ld	c, a
	inc	hl
	ld	a, (hl)
	adc	a, #0xff
	ld	b, a
	ld	a, #0x7f
	push	af
	inc	sp
	push	bc
	call	_set_machine_tile
	add	sp, #3
;stages/stage1.c:52: set_sprite_tile((crntenemy - 1)->oamtilenums[0], 22);
	ld	hl, #_crntenemy
	ld	a, (hl)
	add	a, #0xef
	ld	c, a
	inc	hl
	ld	a, (hl)
	adc	a, #0xff
	ld	b, a
	ld	hl, #0x000d
	add	hl, bc
	ld	e, (hl)
;F:/Game_Boy_Dev_Tools/gbdk/include/gb/gb.h:1145: shadow_OAM[nb].tile=tile;
	ld	bc, #_shadow_OAM+0
	xor	a, a
	ld	l, e
	ld	h, a
	add	hl, hl
	add	hl, hl
	add	hl, bc
	inc	hl
	inc	hl
	ld	(hl), #0x16
;stages/stage1.c:52: set_sprite_tile((crntenemy - 1)->oamtilenums[0], 22);
;stages/stage1.c:53: }
	ret
_roadtiles:
	.db #0x00	; 0
	.db #0x00	; 0
	.db #0x00	; 0
	.db #0x00	; 0
	.db #0x00	; 0
	.db #0x00	; 0
	.db #0x00	; 0
	.db #0x00	; 0
	.db #0x00	; 0
	.db #0x00	; 0
	.db #0xff	; 255
	.db #0xff	; 255
	.db #0x00	; 0
	.db #0x00	; 0
	.db #0xff	; 255
	.db #0xff	; 255
	.db #0xff	; 255
	.db #0xff	; 255
	.db #0x00	; 0
	.db #0x00	; 0
	.db #0xff	; 255
	.db #0xff	; 255
	.db #0xff	; 255
	.db #0x00	; 0
	.db #0x00	; 0
	.db #0x00	; 0
	.db #0x00	; 0
	.db #0x00	; 0
	.db #0x00	; 0
	.db #0x00	; 0
	.db #0x00	; 0
	.db #0x00	; 0
	.db #0x00	; 0
	.db #0x00	; 0
	.db #0x00	; 0
	.db #0x00	; 0
	.db #0x00	; 0
	.db #0x00	; 0
	.db #0x00	; 0
	.db #0x1f	; 31
	.db #0x00	; 0
	.db #0x3f	; 63
	.db #0x00	; 0
	.db #0x00	; 0
	.db #0x00	; 0
	.db #0x00	; 0
	.db #0x00	; 0
	.db #0x00	; 0
	.db #0x00	; 0
	.db #0x00	; 0
	.db #0x00	; 0
	.db #0x00	; 0
	.db #0x00	; 0
	.db #0x00	; 0
	.db #0x00	; 0
	.db #0xfc	; 252
	.db #0x00	; 0
	.db #0xf8	; 248
	.db #0x00	; 0
	.db #0x00	; 0
	.db #0x00	; 0
	.db #0x00	; 0
	.db #0x00	; 0
	.db #0x00	; 0
	.db #0x00	; 0
	.db #0x1f	; 31
	.db #0x00	; 0
	.db #0x3f	; 63
	.db #0x00	; 0
	.db #0x00	; 0
	.db #0x00	; 0
	.db #0x00	; 0
	.db #0x00	; 0
	.db #0x00	; 0
	.db #0x00	; 0
	.db #0x00	; 0
	.db #0x00	; 0
	.db #0x00	; 0
	.db #0x00	; 0
	.db #0x00	; 0
	.db #0x00	; 0
	.db #0xfc	; 252
	.db #0x00	; 0
	.db #0xf8	; 248
	.db #0x00	; 0
	.db #0x00	; 0
	.db #0x00	; 0
	.db #0x00	; 0
	.db #0x00	; 0
	.db #0x00	; 0
	.db #0x00	; 0
	.db #0x00	; 0
	.db #0x00	; 0
	.db #0x00	; 0
	.db #0x00	; 0
	.db #0x00	; 0
	.db #0x00	; 0
	.db #0x00	; 0
	.db #0x00	; 0
	.db #0x00	; 0
	.db #0x00	; 0
	.db #0x00	; 0
	.db #0x00	; 0
	.db #0x00	; 0
	.db #0x00	; 0
	.db #0x00	; 0
	.db #0x00	; 0
	.db #0x00	; 0
	.db #0x00	; 0
	.db #0x1f	; 31
	.db #0x00	; 0
	.db #0x3f	; 63
	.db #0x00	; 0
	.db #0x00	; 0
	.db #0x00	; 0
	.db #0x00	; 0
	.db #0x00	; 0
	.db #0x00	; 0
	.db #0x00	; 0
	.db #0x00	; 0
	.db #0x00	; 0
	.db #0x00	; 0
	.db #0x00	; 0
	.db #0x00	; 0
	.db #0x00	; 0
	.db #0xfc	; 252
	.db #0x00	; 0
	.db #0xf8	; 248
	.db #0x00	; 0
	.db #0x00	; 0
	.db #0x00	; 0
	.db #0x00	; 0
	.db #0x00	; 0
	.db #0x00	; 0
	.db #0x00	; 0
	.db #0x00	; 0
	.db #0x00	; 0
	.db #0x00	; 0
	.db #0xff	; 255
	.db #0xff	; 255
	.db #0x24	; 36
	.db #0xdb	; 219
	.db #0x59	; 89	'Y'
	.db #0xff	; 255
	.db #0x00	; 0
	.db #0x00	; 0
	.db #0x01	; 1
	.db #0x01	; 1
	.db #0x01	; 1
	.db #0x01	; 1
	.db #0x03	; 3
	.db #0x02	; 2
	.db #0x02	; 2
	.db #0x03	; 3
	.db #0x02	; 2
	.db #0x03	; 3
	.db #0x05	; 5
	.db #0x06	; 6
	.db #0x06	; 6
	.db #0x05	; 5
	.db #0x6a	; 106	'j'
	.db #0xdf	; 223
	.db #0x6d	; 109	'm'
	.db #0xbf	; 191
	.db #0x5f	; 95
	.db #0xff	; 255
	.db #0xff	; 255
	.db #0x7f	; 127
	.db #0xbf	; 191
	.db #0x7f	; 127
	.db #0xbf	; 191
	.db #0xff	; 255
	.db #0xff	; 255
	.db #0xff	; 255
	.db #0x7f	; 127
	.db #0xff	; 255
	.db #0x0b	; 11
	.db #0x0d	; 13
	.db #0x0e	; 14
	.db #0x0b	; 11
	.db #0x0f	; 15
	.db #0x09	; 9
	.db #0x1b	; 27
	.db #0x17	; 23
	.db #0x15	; 21
	.db #0x1f	; 31
	.db #0x17	; 23
	.db #0x1b	; 27
	.db #0x2f	; 47
	.db #0x37	; 55	'7'
	.db #0x23	; 35
	.db #0x2f	; 47
	.db #0x00	; 0
	.db #0x00	; 0
	.db #0x00	; 0
	.db #0x00	; 0
	.db #0x00	; 0
	.db #0x00	; 0
	.db #0x00	; 0
	.db #0xfc	; 252
	.db #0x00	; 0
	.db #0xf8	; 248
	.db #0x01	; 1
	.db #0x01	; 1
	.db #0x01	; 1
	.db #0x01	; 1
	.db #0x01	; 1
	.db #0x01	; 1
	.db #0x5f	; 95
	.db #0x6f	; 111	'o'
	.db #0x47	; 71	'G'
	.db #0x7f	; 127
	.db #0x6f	; 111	'o'
	.db #0x5f	; 95
	.db #0xbf	; 191
	.db #0xdf	; 223
	.db #0xdf	; 223
	.db #0xbf	; 191
	.db #0xbf	; 191
	.db #0x7f	; 127
	.db #0x5f	; 95
	.db #0xbf	; 191
	.db #0x7f	; 127
	.db #0xff	; 255
	.db #0x02	; 2
	.db #0x03	; 3
	.db #0x03	; 3
	.db #0x02	; 2
	.db #0x06	; 6
	.db #0x05	; 5
	.db #0x05	; 5
	.db #0x07	; 7
	.db #0x05	; 5
	.db #0x06	; 6
	.db #0x0d	; 13
	.db #0x0b	; 11
	.db #0x0e	; 14
	.db #0xfb	; 251
	.db #0x0b	; 11
	.db #0xfd	; 253
	.db #0xff	; 255
	.db #0x7f	; 127
	.db #0x7f	; 127
	.db #0xff	; 255
	.db #0xff	; 255
	.db #0xff	; 255
	.db #0xff	; 255
	.db #0xff	; 255
	.db #0xff	; 255
	.db #0xff	; 255
	.db #0xff	; 255
	.db #0xff	; 255
	.db #0xff	; 255
	.db #0xff	; 255
	.db #0xff	; 255
	.db #0xff	; 255
	.db #0x1b	; 27
	.db #0x17	; 23
	.db #0x15	; 21
	.db #0x1b	; 27
	.db #0x2f	; 47
	.db #0x37	; 55	'7'
	.db #0x3b	; 59
	.db #0x2f	; 47
	.db #0x2f	; 47
	.db #0x37	; 55	'7'
	.db #0x6f	; 111	'o'
	.db #0x5f	; 95
	.db #0x57	; 87	'W'
	.db #0x6f	; 111	'o'
	.db #0xdf	; 223
	.db #0xbf	; 191
	.db #0xbf	; 191
	.db #0xdf	; 223
	.db #0x1f	; 31
	.db #0x3f	; 63
	.db #0xff	; 255
	.db #0xff	; 255
	.db #0xff	; 255
	.db #0x00	; 0
	.db #0x00	; 0
	.db #0x00	; 0
	.db #0x00	; 0
	.db #0x00	; 0
	.db #0x00	; 0
	.db #0x00	; 0
	.db #0x00	; 0
	.db #0x00	; 0
	.db #0xff	; 255
	.db #0xff	; 255
	.db #0xff	; 255
	.db #0xff	; 255
	.db #0xff	; 255
	.db #0xff	; 255
	.db #0xff	; 255
	.db #0xff	; 255
	.db #0xff	; 255
	.db #0xff	; 255
	.db #0xff	; 255
	.db #0xff	; 255
	.db #0xff	; 255
	.db #0xff	; 255
	.db #0xff	; 255
	.db #0xff	; 255
	.db #0xb7	; 183
	.db #0xdb	; 219
	.db #0xee	; 238
	.db #0x7e	; 126
	.db #0xfe	; 254
	.db #0xfe	; 254
	.db #0xfc	; 252
	.db #0xfc	; 252
	.db #0xfc	; 252
	.db #0xfc	; 252
	.db #0xfc	; 252
	.db #0xfc	; 252
	.db #0xf8	; 248
	.db #0xf8	; 248
	.db #0xf8	; 248
	.db #0xf8	; 248
	.db #0xf0	; 240
	.db #0xfc	; 252
	.db #0xf0	; 240
	.db #0xf8	; 248
	.db #0xf0	; 240
	.db #0xf0	; 240
	.db #0xe0	; 224
	.db #0xe0	; 224
	.db #0xe0	; 224
	.db #0xe0	; 224
	.db #0xe0	; 224
	.db #0xe0	; 224
	.db #0xc0	; 192
	.db #0xc0	; 192
	.db #0xc0	; 192
	.db #0xc0	; 192
	.db #0xff	; 255
	.db #0xff	; 255
	.db #0xff	; 255
	.db #0xff	; 255
	.db #0xff	; 255
	.db #0xff	; 255
	.db #0xff	; 255
	.db #0xff	; 255
	.db #0xff	; 255
	.db #0xff	; 255
	.db #0xfe	; 254
	.db #0xfe	; 254
	.db #0xfe	; 254
	.db #0xfe	; 254
	.db #0xfe	; 254
	.db #0xfe	; 254
	.db #0x80	; 128
	.db #0x80	; 128
	.db #0x80	; 128
	.db #0x80	; 128
	.db #0x80	; 128
	.db #0x80	; 128
	.db #0x00	; 0
	.db #0xfc	; 252
	.db #0x00	; 0
	.db #0xf8	; 248
	.db #0x00	; 0
	.db #0x00	; 0
	.db #0x00	; 0
	.db #0x00	; 0
	.db #0x00	; 0
	.db #0x00	; 0
	.db #0xfc	; 252
	.db #0xfc	; 252
	.db #0xfc	; 252
	.db #0xfc	; 252
	.db #0xf8	; 248
	.db #0xf8	; 248
	.db #0xf8	; 248
	.db #0xf8	; 248
	.db #0xf8	; 248
	.db #0xf8	; 248
	.db #0xf0	; 240
	.db #0xf0	; 240
	.db #0xf0	; 240
	.db #0xff	; 255
	.db #0xf0	; 240
	.db #0xff	; 255
	.db #0xe0	; 224
	.db #0xe0	; 224
	.db #0xe0	; 224
	.db #0xe0	; 224
	.db #0xc0	; 192
	.db #0xc0	; 192
	.db #0xc0	; 192
	.db #0xc0	; 192
	.db #0xc0	; 192
	.db #0xc0	; 192
	.db #0x80	; 128
	.db #0x80	; 128
	.db #0x80	; 128
	.db #0x80	; 128
	.db #0x00	; 0
	.db #0x00	; 0
	.db #0x59	; 89	'Y'
	.db #0xae	; 174
	.db #0xb6	; 182
	.db #0xff	; 255
	.db #0xff	; 255
	.db #0xff	; 255
	.db #0xff	; 255
	.db #0xff	; 255
	.db #0xff	; 255
	.db #0xff	; 255
	.db #0xff	; 255
	.db #0xff	; 255
	.db #0xff	; 255
	.db #0xff	; 255
	.db #0xff	; 255
	.db #0xff	; 255
	.db #0x00	; 0
	.db #0x00	; 0
	.db #0x00	; 0
	.db #0x00	; 0
	.db #0x00	; 0
	.db #0x00	; 0
	.db #0x00	; 0
	.db #0x00	; 0
	.db #0x00	; 0
	.db #0x00	; 0
	.db #0x01	; 1
	.db #0x01	; 1
	.db #0x01	; 1
	.db #0x01	; 1
	.db #0x01	; 1
	.db #0x01	; 1
	.db #0xff	; 255
	.db #0xff	; 255
	.db #0xff	; 255
	.db #0xff	; 255
	.db #0xff	; 255
	.db #0xff	; 255
	.db #0xff	; 255
	.db #0x00	; 0
	.db #0x00	; 0
	.db #0x00	; 0
	.db #0x00	; 0
	.db #0x00	; 0
	.db #0x00	; 0
	.db #0x00	; 0
	.db #0x00	; 0
	.db #0x00	; 0
_bossspritetiles:
	.db #0x30	; 48	'0'
	.db #0x3e	; 62
	.db #0x6c	; 108	'l'
	.db #0x53	; 83	'S'
	.db #0xdb	; 219
	.db #0xa5	; 165
	.db #0xa1	; 161
	.db #0xdf	; 223
	.db #0xdb	; 219
	.db #0xa5	; 165
	.db #0x6e	; 110	'n'
	.db #0x52	; 82	'R'
	.db #0x3e	; 62
	.db #0x3e	; 62
	.db #0x22	; 34
	.db #0x3e	; 62
	.db #0x14	; 20
	.db #0x1c	; 28
	.db #0x1c	; 28
	.db #0x14	; 20
	.db #0x0c	; 12
	.db #0x0c	; 12
	.db #0x08	; 8
	.db #0x08	; 8
	.db #0x10	; 16
	.db #0x10	; 16
	.db #0x00	; 0
	.db #0x00	; 0
	.db #0x00	; 0
	.db #0x00	; 0
	.db #0x00	; 0
	.db #0x00	; 0
	.db #0x7c	; 124
	.db #0xfc	; 252
	.db #0x0f	; 15
	.db #0x0f	; 15
	.db #0x00	; 0
	.db #0x08	; 8
	.db #0x1f	; 31
	.db #0x18	; 24
	.db #0x00	; 0
	.db #0x0f	; 15
	.db #0x0f	; 15
	.db #0x0f	; 15
	.db #0x7c	; 124
	.db #0xfc	; 252
	.db #0x00	; 0
	.db #0x00	; 0
	.db #0x00	; 0
	.db #0x3c	; 60
	.db #0x08	; 8
	.db #0x42	; 66	'B'
	.db #0x04	; 4
	.db #0x81	; 129
	.db #0x1e	; 30
	.db #0x81	; 129
	.db #0x04	; 4
	.db #0x81	; 129
	.db #0x08	; 8
	.db #0x42	; 66	'B'
	.db #0x00	; 0
	.db #0x3e	; 62
	.db #0x1c	; 28
	.db #0x22	; 34
	.db #0x08	; 8
	.db #0x14	; 20
	.db #0x00	; 0
	.db #0x14	; 20
	.db #0x00	; 0
	.db #0x0c	; 12
	.db #0x00	; 0
	.db #0x08	; 8
	.db #0x00	; 0
	.db #0x10	; 16
	.db #0x00	; 0
	.db #0x00	; 0
	.db #0x00	; 0
	.db #0x00	; 0
	.db #0x00	; 0
	.db #0x00	; 0
	.db #0x80	; 128
	.db #0x7c	; 124
	.db #0x00	; 0
	.db #0x0f	; 15
	.db #0x08	; 8
	.db #0x00	; 0
	.db #0x00	; 0
	.db #0x18	; 24
	.db #0x0f	; 15
	.db #0x00	; 0
	.db #0x00	; 0
	.db #0x0f	; 15
	.db #0x80	; 128
	.db #0x7c	; 124
	.db #0x00	; 0
	.db #0x00	; 0
	.db #0x00	; 0
	.db #0x00	; 0
	.db #0x01	; 1
	.db #0x01	; 1
	.db #0x03	; 3
	.db #0x02	; 2
	.db #0x07	; 7
	.db #0x1d	; 29
	.db #0xff	; 255
	.db #0xff	; 255
	.db #0x51	; 81	'Q'
	.db #0x51	; 81	'Q'
	.db #0x82	; 130
	.db #0x82	; 130
	.db #0x28	; 40
	.db #0x28	; 40
	.db #0xfe	; 254
	.db #0x48	; 72	'H'
	.db #0xfc	; 252
	.db #0x24	; 36
	.db #0xf9	; 249
	.db #0x81	; 129
	.db #0xf3	; 243
	.db #0x52	; 82	'R'
	.db #0xff	; 255
	.db #0xff	; 255
	.db #0x00	; 0
	.db #0x00	; 0
	.db #0x00	; 0
	.db #0x00	; 0
	.db #0x00	; 0
	.db #0x00	; 0
_hudtiles:
	.db #0x00	; 0
	.db #0x00	; 0
	.db #0x00	; 0
	.db #0x00	; 0
	.db #0x00	; 0
	.db #0x00	; 0
	.db #0x00	; 0
	.db #0x00	; 0
	.db #0x00	; 0
	.db #0x00	; 0
	.db #0x00	; 0
	.db #0x00	; 0
	.db #0x00	; 0
	.db #0x00	; 0
	.db #0x00	; 0
	.db #0x00	; 0
	.db #0x1c	; 28
	.db #0x1c	; 28
	.db #0x26	; 38
	.db #0x26	; 38
	.db #0x2a	; 42
	.db #0x2a	; 42
	.db #0x34	; 52	'4'
	.db #0x34	; 52	'4'
	.db #0x64	; 100	'd'
	.db #0x64	; 100	'd'
	.db #0x44	; 68	'D'
	.db #0x44	; 68	'D'
	.db #0x38	; 56	'8'
	.db #0x38	; 56	'8'
	.db #0x00	; 0
	.db #0x00	; 0
	.db #0x02	; 2
	.db #0x02	; 2
	.db #0x02	; 2
	.db #0x02	; 2
	.db #0x04	; 4
	.db #0x04	; 4
	.db #0x04	; 4
	.db #0x04	; 4
	.db #0x04	; 4
	.db #0x04	; 4
	.db #0x08	; 8
	.db #0x08	; 8
	.db #0x08	; 8
	.db #0x08	; 8
	.db #0x00	; 0
	.db #0x00	; 0
	.db #0x0c	; 12
	.db #0x0c	; 12
	.db #0x12	; 18
	.db #0x12	; 18
	.db #0x02	; 2
	.db #0x02	; 2
	.db #0x04	; 4
	.db #0x04	; 4
	.db #0x08	; 8
	.db #0x08	; 8
	.db #0x10	; 16
	.db #0x10	; 16
	.db #0x3c	; 60
	.db #0x3c	; 60
	.db #0x00	; 0
	.db #0x00	; 0
	.db #0x3c	; 60
	.db #0x3c	; 60
	.db #0x02	; 2
	.db #0x02	; 2
	.db #0x02	; 2
	.db #0x02	; 2
	.db #0x1c	; 28
	.db #0x1c	; 28
	.db #0x04	; 4
	.db #0x04	; 4
	.db #0x04	; 4
	.db #0x04	; 4
	.db #0x78	; 120	'x'
	.db #0x78	; 120	'x'
	.db #0x00	; 0
	.db #0x00	; 0
	.db #0x1c	; 28
	.db #0x1c	; 28
	.db #0x22	; 34
	.db #0x22	; 34
	.db #0x22	; 34
	.db #0x22	; 34
	.db #0x3c	; 60
	.db #0x3c	; 60
	.db #0x44	; 68	'D'
	.db #0x44	; 68	'D'
	.db #0x44	; 68	'D'
	.db #0x44	; 68	'D'
	.db #0x44	; 68	'D'
	.db #0x44	; 68	'D'
	.db #0x00	; 0
	.db #0x00	; 0
	.db #0x1e	; 30
	.db #0x1e	; 30
	.db #0x10	; 16
	.db #0x10	; 16
	.db #0x20	; 32
	.db #0x20	; 32
	.db #0x3c	; 60
	.db #0x3c	; 60
	.db #0x20	; 32
	.db #0x20	; 32
	.db #0x40	; 64
	.db #0x40	; 64
	.db #0x7c	; 124
	.db #0x7c	; 124
	.db #0x00	; 0
	.db #0x00	; 0
	.db #0x22	; 34
	.db #0x22	; 34
	.db #0x32	; 50	'2'
	.db #0x32	; 50	'2'
	.db #0x2a	; 42
	.db #0x2a	; 42
	.db #0x24	; 36
	.db #0x24	; 36
	.db #0x44	; 68	'D'
	.db #0x44	; 68	'D'
	.db #0x44	; 68	'D'
	.db #0x44	; 68	'D'
	.db #0x44	; 68	'D'
	.db #0x44	; 68	'D'
	.db #0x00	; 0
	.db #0x00	; 0
	.db #0x1c	; 28
	.db #0x1c	; 28
	.db #0x22	; 34
	.db #0x22	; 34
	.db #0x22	; 34
	.db #0x22	; 34
	.db #0x3c	; 60
	.db #0x3c	; 60
	.db #0x40	; 64
	.db #0x40	; 64
	.db #0x40	; 64
	.db #0x40	; 64
	.db #0x40	; 64
	.db #0x40	; 64
	.db #0x00	; 0
	.db #0x00	; 0
	.db #0x1e	; 30
	.db #0x1e	; 30
	.db #0x20	; 32
	.db #0x20	; 32
	.db #0x20	; 32
	.db #0x20	; 32
	.db #0x1c	; 28
	.db #0x1c	; 28
	.db #0x02	; 2
	.db #0x02	; 2
	.db #0x02	; 2
	.db #0x02	; 2
	.db #0x7c	; 124
	.db #0x7c	; 124
	.db #0x00	; 0
	.db #0x00	; 0
	.db #0x22	; 34
	.db #0x22	; 34
	.db #0x22	; 34
	.db #0x22	; 34
	.db #0x22	; 34
	.db #0x22	; 34
	.db #0x44	; 68	'D'
	.db #0x44	; 68	'D'
	.db #0x44	; 68	'D'
	.db #0x44	; 68	'D'
	.db #0x44	; 68	'D'
	.db #0x44	; 68	'D'
	.db #0x38	; 56	'8'
	.db #0x38	; 56	'8'
	.db #0x00	; 0
	.db #0x00	; 0
	.db #0x00	; 0
	.db #0x00	; 0
	.db #0x00	; 0
	.db #0x00	; 0
	.db #0x00	; 0
	.db #0x00	; 0
	.db #0x10	; 16
	.db #0x10	; 16
	.db #0x00	; 0
	.db #0x00	; 0
	.db #0x00	; 0
	.db #0x00	; 0
	.db #0x20	; 32
	.db #0x20	; 32
	.db #0x00	; 0
	.db #0x00	; 0
	.db #0x3c	; 60
	.db #0x3c	; 60
	.db #0x20	; 32
	.db #0x20	; 32
	.db #0x20	; 32
	.db #0x20	; 32
	.db #0x20	; 32
	.db #0x20	; 32
	.db #0x40	; 64
	.db #0x40	; 64
	.db #0x40	; 64
	.db #0x40	; 64
	.db #0x78	; 120	'x'
	.db #0x78	; 120	'x'
	.db #0x00	; 0
	.db #0x00	; 0
	.db #0x3c	; 60
	.db #0x3c	; 60
	.db #0x04	; 4
	.db #0x04	; 4
	.db #0x04	; 4
	.db #0x04	; 4
	.db #0x04	; 4
	.db #0x04	; 4
	.db #0x08	; 8
	.db #0x08	; 8
	.db #0x08	; 8
	.db #0x08	; 8
	.db #0x78	; 120	'x'
	.db #0x78	; 120	'x'
	.db #0x00	; 0
	.db #0x00	; 0
	.db #0x00	; 0
	.db #0x00	; 0
	.db #0x1c	; 28
	.db #0x1c	; 28
	.db #0x26	; 38
	.db #0x3a	; 58
	.db #0x2e	; 46
	.db #0x32	; 50	'2'
	.db #0x74	; 116	't'
	.db #0x4c	; 76	'L'
	.db #0x64	; 100	'd'
	.db #0x5c	; 92
	.db #0x38	; 56	'8'
	.db #0x38	; 56	'8'
	.db #0x00	; 0
	.db #0x00	; 0
	.db #0x00	; 0
	.db #0x00	; 0
	.db #0x1c	; 28
	.db #0x1c	; 28
	.db #0x22	; 34
	.db #0x22	; 34
	.db #0x22	; 34
	.db #0x22	; 34
	.db #0x44	; 68	'D'
	.db #0x44	; 68	'D'
	.db #0x7c	; 124
	.db #0x44	; 68	'D'
	.db #0x38	; 56	'8'
	.db #0x38	; 56	'8'
	.db #0x00	; 0
	.db #0x00	; 0
	.db #0x10	; 16
	.db #0x30	; 48	'0'
	.db #0x00	; 0
	.db #0x20	; 32
	.db #0x40	; 64
	.db #0x78	; 120	'x'
	.db #0x24	; 36
	.db #0x34	; 52	'4'
	.db #0xbc	; 188
	.db #0x3c	; 60
	.db #0x6e	; 110	'n'
	.db #0xd2	; 210
	.db #0xac	; 172
	.db #0x3c	; 60
	.db #0x00	; 0
	.db #0x00	; 0
	.db #0x00	; 0
	.db #0x00	; 0
	.db #0x00	; 0
	.db #0x00	; 0
	.db #0x10	; 16
	.db #0x10	; 16
	.db #0x28	; 40
	.db #0x28	; 40
	.db #0x10	; 16
	.db #0x10	; 16
	.db #0x00	; 0
	.db #0x00	; 0
	.db #0x00	; 0
	.db #0x00	; 0
	.db #0x00	; 0
	.db #0x00	; 0
	.db #0x00	; 0
	.db #0x00	; 0
	.db #0x00	; 0
	.db #0x00	; 0
	.db #0x10	; 16
	.db #0x18	; 24
	.db #0x1c	; 28
	.db #0x24	; 36
	.db #0x38	; 56	'8'
	.db #0x24	; 36
	.db #0x08	; 8
	.db #0x18	; 24
	.db #0x00	; 0
	.db #0x00	; 0
	.db #0x00	; 0
	.db #0x00	; 0
	.db #0x00	; 0
	.db #0x00	; 0
	.db #0x00	; 0
	.db #0x00	; 0
	.db #0xff	; 255
	.db #0xff	; 255
	.db #0xff	; 255
	.db #0x00	; 0
	.db #0xff	; 255
	.db #0xff	; 255
	.db #0x00	; 0
	.db #0x00	; 0
	.db #0x00	; 0
	.db #0x00	; 0
	.db #0x00	; 0
	.db #0x00	; 0
_enemyspritetiles:
	.db #0x00	; 0
	.db #0x00	; 0
	.db #0x03	; 3
	.db #0x03	; 3
	.db #0x03	; 3
	.db #0x00	; 0
	.db #0x00	; 0
	.db #0x03	; 3
	.db #0x03	; 3
	.db #0x03	; 3
	.db #0x00	; 0
	.db #0x00	; 0
	.db #0x04	; 4
	.db #0x07	; 7
	.db #0x08	; 8
	.db #0x0c	; 12
	.db #0x10	; 16
	.db #0x13	; 19
	.db #0x3f	; 63
	.db #0x3f	; 63
	.db #0xd4	; 212
	.db #0xeb	; 235
	.db #0x4b	; 75	'K'
	.db #0x77	; 119	'w'
	.db #0x36	; 54	'6'
	.db #0x3b	; 59
	.db #0x0e	; 14
	.db #0x0f	; 15
	.db #0x01	; 1
	.db #0x01	; 1
	.db #0x00	; 0
	.db #0x00	; 0
	.db #0x00	; 0
	.db #0x00	; 0
	.db #0x80	; 128
	.db #0x80	; 128
	.db #0xc0	; 192
	.db #0x00	; 0
	.db #0x40	; 64
	.db #0xc0	; 192
	.db #0x00	; 0
	.db #0xc0	; 192
	.db #0x18	; 24
	.db #0x98	; 152
	.db #0x30	; 48	'0'
	.db #0xf0	; 240
	.db #0x30	; 48	'0'
	.db #0xf0	; 240
	.db #0x68	; 104	'h'
	.db #0xe8	; 232
	.db #0xf0	; 240
	.db #0xf2	; 242
	.db #0x0a	; 10
	.db #0xfd	; 253
	.db #0xec	; 236
	.db #0xfa	; 250
	.db #0x2a	; 42
	.db #0xfd	; 253
	.db #0x30	; 48	'0'
	.db #0xf2	; 242
	.db #0xc8	; 200
	.db #0xc8	; 200
	.db #0x04	; 4
	.db #0x04	; 4
	.db #0x00	; 0
	.db #0x00	; 0
	.db #0x00	; 0
	.db #0x00	; 0
	.db #0x00	; 0
	.db #0x00	; 0
	.db #0x10	; 16
	.db #0x11	; 17
	.db #0x0b	; 11
	.db #0x0b	; 11
	.db #0x85	; 133
	.db #0x86	; 134
	.db #0x76	; 118	'v'
	.db #0x75	; 117	'u'
	.db #0x8f	; 143
	.db #0xfd	; 253
	.db #0x76	; 118	'v'
	.db #0x75	; 117	'u'
	.db #0x85	; 133
	.db #0x86	; 134
	.db #0x03	; 3
	.db #0x03	; 3
	.db #0x04	; 4
	.db #0x05	; 5
	.db #0x08	; 8
	.db #0x08	; 8
	.db #0x00	; 0
	.db #0x00	; 0
	.db #0x00	; 0
	.db #0x00	; 0
	.db #0x00	; 0
	.db #0x00	; 0
	.db #0x00	; 0
	.db #0x00	; 0
	.db #0x00	; 0
	.db #0x00	; 0
	.db #0x00	; 0
	.db #0x00	; 0
	.db #0x08	; 8
	.db #0x88	; 136
	.db #0xd0	; 208
	.db #0xd0	; 208
	.db #0xa1	; 161
	.db #0x61	; 97	'a'
	.db #0x6e	; 110	'n'
	.db #0xae	; 174
	.db #0xf1	; 241
	.db #0xbf	; 191
	.db #0x6e	; 110	'n'
	.db #0xae	; 174
	.db #0xa1	; 161
	.db #0x61	; 97	'a'
	.db #0xc0	; 192
	.db #0xc0	; 192
	.db #0x20	; 32
	.db #0xa0	; 160
	.db #0x10	; 16
	.db #0x10	; 16
	.db #0x00	; 0
	.db #0x00	; 0
	.db #0x00	; 0
	.db #0x00	; 0
	.db #0x00	; 0
	.db #0x00	; 0
	.db #0x00	; 0
	.db #0x00	; 0
	.db #0x00	; 0
	.db #0x00	; 0
	.db #0x00	; 0
	.db #0x00	; 0
	.db #0x00	; 0
	.db #0x00	; 0
	.db #0x04	; 4
	.db #0x04	; 4
	.db #0x09	; 9
	.db #0x09	; 9
	.db #0x3e	; 62
	.db #0x3f	; 63
	.db #0xd4	; 212
	.db #0xeb	; 235
	.db #0xea	; 234
	.db #0xd5	; 213
	.db #0x3e	; 62
	.db #0x3f	; 63
	.db #0x09	; 9
	.db #0x09	; 9
	.db #0x04	; 4
	.db #0x04	; 4
	.db #0x00	; 0
	.db #0x00	; 0
	.db #0x00	; 0
	.db #0x00	; 0
	.db #0x00	; 0
	.db #0x00	; 0
	.db #0x00	; 0
	.db #0x00	; 0
	.db #0x00	; 0
	.db #0x00	; 0
	.db #0x00	; 0
	.db #0x00	; 0
	.db #0x00	; 0
	.db #0x00	; 0
	.db #0x70	; 112	'p'
	.db #0x70	; 112	'p'
	.db #0xe0	; 224
	.db #0xa0	; 160
	.db #0xfa	; 250
	.db #0xf9	; 249
	.db #0x15	; 21
	.db #0xf2	; 242
	.db #0x0a	; 10
	.db #0xfd	; 253
	.db #0x0a	; 10
	.db #0xfd	; 253
	.db #0x15	; 21
	.db #0xf2	; 242
	.db #0xfa	; 250
	.db #0xf9	; 249
	.db #0xe0	; 224
	.db #0xa0	; 160
	.db #0x70	; 112	'p'
	.db #0x70	; 112	'p'
	.db #0x00	; 0
	.db #0x00	; 0
	.db #0x00	; 0
	.db #0x00	; 0
	.db #0x00	; 0
	.db #0x00	; 0
	.db #0x00	; 0
	.db #0x00	; 0
	.db #0x01	; 1
	.db #0x00	; 0
	.db #0x11	; 17
	.db #0x00	; 0
	.db #0x0b	; 11
	.db #0x00	; 0
	.db #0x05	; 5
	.db #0x03	; 3
	.db #0x06	; 6
	.db #0x03	; 3
	.db #0x02	; 2
	.db #0x01	; 1
	.db #0x01	; 1
	.db #0x00	; 0
	.db #0x0f	; 15
	.db #0x00	; 0
	.db #0x1f	; 31
	.db #0x0f	; 15
	.db #0x3d	; 61
	.db #0x1a	; 26
	.db #0x3a	; 58
	.db #0x1d	; 29
	.db #0x7f	; 127
	.db #0x3f	; 63
	.db #0x7f	; 127
	.db #0x00	; 0
	.db #0x00	; 0
	.db #0x00	; 0
	.db #0x00	; 0
	.db #0x00	; 0
	.db #0x00	; 0
	.db #0x00	; 0
	.db #0x00	; 0
	.db #0x00	; 0
	.db #0x10	; 16
	.db #0x00	; 0
	.db #0xa0	; 160
	.db #0x00	; 0
	.db #0x40	; 64
	.db #0x80	; 128
	.db #0xc0	; 192
	.db #0x80	; 128
	.db #0x80	; 128
	.db #0x00	; 0
	.db #0x00	; 0
	.db #0x00	; 0
	.db #0xf0	; 240
	.db #0x00	; 0
	.db #0xf8	; 248
	.db #0xf0	; 240
	.db #0x5c	; 92
	.db #0xb8	; 184
	.db #0xbc	; 188
	.db #0x58	; 88	'X'
	.db #0xfe	; 254
	.db #0xfc	; 252
	.db #0xfe	; 254
	.db #0x00	; 0
	.db #0x00	; 0
	.db #0x00	; 0
	.db #0x00	; 0
	.db #0x00	; 0
	.db #0x00	; 0
	.db #0x00	; 0
	.db #0x00	; 0
	.db #0x00	; 0
	.db #0x00	; 0
	.db #0x00	; 0
	.db #0x00	; 0
	.db #0x00	; 0
	.db #0x01	; 1
	.db #0x01	; 1
	.db #0x07	; 7
	.db #0x07	; 7
	.db #0x0f	; 15
	.db #0x08	; 8
	.db #0xff	; 255
	.db #0xff	; 255
	.db #0xaf	; 175
	.db #0xd0	; 208
	.db #0xf4	; 244
	.db #0xef	; 239
	.db #0x1e	; 30
	.db #0x1f	; 31
	.db #0x01	; 1
	.db #0x01	; 1
	.db #0x00	; 0
	.db #0x00	; 0
	.db #0x00	; 0
	.db #0x00	; 0
	.db #0x00	; 0
	.db #0x00	; 0
	.db #0x00	; 0
	.db #0x00	; 0
	.db #0x00	; 0
	.db #0x00	; 0
	.db #0x00	; 0
	.db #0x00	; 0
	.db #0x00	; 0
	.db #0x00	; 0
	.db #0x00	; 0
	.db #0x00	; 0
	.db #0x08	; 8
	.db #0x08	; 8
	.db #0xf2	; 242
	.db #0xf1	; 241
	.db #0x9d	; 157
	.db #0xfa	; 250
	.db #0xea	; 234
	.db #0xfd	; 253
	.db #0xea	; 234
	.db #0x1d	; 29
	.db #0xfd	; 253
	.db #0x9a	; 154
	.db #0x72	; 114	'r'
	.db #0xf1	; 241
	.db #0xc8	; 200
	.db #0xc8	; 200
	.db #0x00	; 0
	.db #0x00	; 0
	.db #0x00	; 0
	.db #0x00	; 0
	.db #0x00	; 0
	.db #0x00	; 0
	.db #0x00	; 0
	.db #0x00	; 0
	.db #0x00	; 0
	.db #0x00	; 0
	.db #0x00	; 0
	.db #0x00	; 0
	.db #0x11	; 17
	.db #0x11	; 17
	.db #0x09	; 9
	.db #0x09	; 9
	.db #0x07	; 7
	.db #0x07	; 7
	.db #0x0f	; 15
	.db #0x0d	; 13
	.db #0x0f	; 15
	.db #0x0a	; 10
	.db #0x3f	; 63
	.db #0x39	; 57	'9'
	.db #0x0f	; 15
	.db #0x0a	; 10
	.db #0x0f	; 15
	.db #0x0d	; 13
	.db #0x07	; 7
	.db #0x07	; 7
	.db #0x09	; 9
	.db #0x09	; 9
	.db #0x11	; 17
	.db #0x11	; 17
	.db #0x00	; 0
	.db #0x00	; 0
	.db #0x00	; 0
	.db #0x00	; 0
	.db #0x00	; 0
	.db #0x00	; 0
	.db #0x00	; 0
	.db #0x00	; 0
	.db #0x00	; 0
	.db #0x00	; 0
	.db #0x10	; 16
	.db #0x10	; 16
	.db #0x20	; 32
	.db #0x20	; 32
	.db #0xc0	; 192
	.db #0xc0	; 192
	.db #0xe0	; 224
	.db #0x60	; 96
	.db #0xe0	; 224
	.db #0xa0	; 160
	.db #0xf8	; 248
	.db #0x38	; 56	'8'
	.db #0xe0	; 224
	.db #0xa0	; 160
	.db #0xe0	; 224
	.db #0x60	; 96
	.db #0xc0	; 192
	.db #0xc0	; 192
	.db #0x20	; 32
	.db #0x20	; 32
	.db #0x10	; 16
	.db #0x10	; 16
	.db #0x00	; 0
	.db #0x00	; 0
	.db #0x00	; 0
	.db #0x00	; 0
	.db #0x00	; 0
	.db #0x00	; 0
_cloudtiles:
	.db #0x00	; 0
	.db #0x00	; 0
	.db #0x00	; 0
	.db #0x00	; 0
	.db #0x06	; 6
	.db #0x00	; 0
	.db #0x09	; 9
	.db #0x00	; 0
	.db #0x10	; 16
	.db #0x00	; 0
	.db #0x2a	; 42
	.db #0x00	; 0
	.db #0x7f	; 127
	.db #0x00	; 0
	.db #0x00	; 0
	.db #0x00	; 0
	.db #0x00	; 0
	.db #0x00	; 0
	.db #0x00	; 0
	.db #0x00	; 0
	.db #0x01	; 1
	.db #0x00	; 0
	.db #0xce	; 206
	.db #0x00	; 0
	.db #0x34	; 52	'4'
	.db #0x00	; 0
	.db #0x80	; 128
	.db #0x00	; 0
	.db #0xff	; 255
	.db #0x00	; 0
	.db #0x00	; 0
	.db #0x00	; 0
	.db #0x00	; 0
	.db #0x00	; 0
	.db #0x00	; 0
	.db #0x00	; 0
	.db #0xc0	; 192
	.db #0x00	; 0
	.db #0xa0	; 160
	.db #0x00	; 0
	.db #0x3c	; 60
	.db #0x00	; 0
	.db #0x02	; 2
	.db #0x00	; 0
	.db #0xfe	; 254
	.db #0x00	; 0
	.db #0x00	; 0
	.db #0x00	; 0
	.db #0x00	; 0
	.db #0x00	; 0
	.db #0x00	; 0
	.db #0x00	; 0
	.db #0x00	; 0
	.db #0x00	; 0
	.db #0x01	; 1
	.db #0x00	; 0
	.db #0x03	; 3
	.db #0x00	; 0
	.db #0x04	; 4
	.db #0x00	; 0
	.db #0x1f	; 31
	.db #0x00	; 0
	.db #0x00	; 0
	.db #0x00	; 0
	.db #0x00	; 0
	.db #0x00	; 0
	.db #0x00	; 0
	.db #0x00	; 0
	.db #0xc0	; 192
	.db #0x00	; 0
	.db #0xb3	; 179
	.db #0x00	; 0
	.db #0x1d	; 29
	.db #0x00	; 0
	.db #0x24	; 36
	.db #0x00	; 0
	.db #0xff	; 255
	.db #0x00	; 0
	.db #0x00	; 0
	.db #0x00	; 0
	.db #0x00	; 0
	.db #0x00	; 0
	.db #0x00	; 0
	.db #0x00	; 0
	.db #0x00	; 0
	.db #0x00	; 0
	.db #0x00	; 0
	.db #0x00	; 0
	.db #0x81	; 129
	.db #0x00	; 0
	.db #0x42	; 66	'B'
	.db #0x00	; 0
	.db #0xe7	; 231
	.db #0x00	; 0
	.db #0x00	; 0
	.db #0x00	; 0
	.db #0x00	; 0
	.db #0x00	; 0
	.db #0x0f	; 15
	.db #0x00	; 0
	.db #0x34	; 52	'4'
	.db #0x00	; 0
	.db #0x50	; 80	'P'
	.db #0x00	; 0
	.db #0x84	; 132
	.db #0x00	; 0
	.db #0x48	; 72	'H'
	.db #0x00	; 0
	.db #0xff	; 255
	.db #0x00	; 0
	.db #0x00	; 0
	.db #0x00	; 0
	.db #0x00	; 0
	.db #0x00	; 0
	.db #0x00	; 0
	.db #0x00	; 0
	.db #0xc0	; 192
	.db #0x00	; 0
	.db #0x70	; 112	'p'
	.db #0x00	; 0
	.db #0x48	; 72	'H'
	.db #0x00	; 0
	.db #0x24	; 36
	.db #0x00	; 0
	.db #0xfe	; 254
	.db #0x00	; 0
	.db #0x00	; 0
	.db #0x00	; 0
	.db #0x00	; 0
	.db #0x00	; 0
	.db #0x01	; 1
	.db #0x00	; 0
	.db #0x02	; 2
	.db #0x00	; 0
	.db #0x0c	; 12
	.db #0x00	; 0
	.db #0x10	; 16
	.db #0x00	; 0
	.db #0x21	; 33
	.db #0x00	; 0
	.db #0x3f	; 63
	.db #0x00	; 0
	.db #0x00	; 0
	.db #0x00	; 0
	.db #0x00	; 0
	.db #0x00	; 0
	.db #0xe3	; 227
	.db #0x00	; 0
	.db #0x54	; 84	'T'
	.db #0x00	; 0
	.db #0x08	; 8
	.db #0x00	; 0
	.db #0x01	; 1
	.db #0x00	; 0
	.db #0x02	; 2
	.db #0x00	; 0
	.db #0xff	; 255
	.db #0x00	; 0
	.db #0x00	; 0
	.db #0x00	; 0
	.db #0xf8	; 248
	.db #0x00	; 0
	.db #0x14	; 20
	.db #0x00	; 0
	.db #0x22	; 34
	.db #0x00	; 0
	.db #0x01	; 1
	.db #0x00	; 0
	.db #0x08	; 8
	.db #0x00	; 0
	.db #0x04	; 4
	.db #0x00	; 0
	.db #0xff	; 255
	.db #0x00	; 0
	.db #0x00	; 0
	.db #0x00	; 0
	.db #0x00	; 0
	.db #0x00	; 0
	.db #0x19	; 25
	.db #0x00	; 0
	.db #0x26	; 38
	.db #0x00	; 0
	.db #0xc2	; 194
	.db #0x00	; 0
	.db #0x80	; 128
	.db #0x00	; 0
	.db #0x10	; 16
	.db #0x00	; 0
	.db #0xff	; 255
	.db #0x00	; 0
	.db #0x00	; 0
	.db #0x00	; 0
	.db #0x00	; 0
	.db #0x00	; 0
	.db #0x80	; 128
	.db #0x00	; 0
	.db #0x40	; 64
	.db #0x00	; 0
	.db #0x30	; 48	'0'
	.db #0x00	; 0
	.db #0x08	; 8
	.db #0x00	; 0
	.db #0x48	; 72	'H'
	.db #0x00	; 0
	.db #0xfc	; 252
	.db #0x00	; 0
	.db #0x00	; 0
	.db #0x00	; 0
_playerspritetiles:
	.db #0x00	; 0
	.db #0x00	; 0
	.db #0x01	; 1
	.db #0x01	; 1
	.db #0x03	; 3
	.db #0x02	; 2
	.db #0x03	; 3
	.db #0x02	; 2
	.db #0x00	; 0
	.db #0x03	; 3
	.db #0x18	; 24
	.db #0x19	; 25
	.db #0x0c	; 12
	.db #0x0f	; 15
	.db #0x0c	; 12
	.db #0x0f	; 15
	.db #0x06	; 6
	.db #0x07	; 7
	.db #0x0f	; 15
	.db #0x4f	; 79	'O'
	.db #0x5f	; 95
	.db #0xb0	; 176
	.db #0x3f	; 63
	.db #0x57	; 87	'W'
	.db #0x5f	; 95
	.db #0xb4	; 180
	.db #0x0c	; 12
	.db #0x4f	; 79	'O'
	.db #0x07	; 7
	.db #0x07	; 7
	.db #0x00	; 0
	.db #0x00	; 0
	.db #0x00	; 0
	.db #0x00	; 0
	.db #0xc0	; 192
	.db #0xc0	; 192
	.db #0xc0	; 192
	.db #0x40	; 64
	.db #0x00	; 0
	.db #0xc0	; 192
	.db #0xc0	; 192
	.db #0xc0	; 192
	.db #0x00	; 0
	.db #0x00	; 0
	.db #0x20	; 32
	.db #0xe0	; 224
	.db #0x10	; 16
	.db #0x30	; 48	'0'
	.db #0x08	; 8
	.db #0xc8	; 200
	.db #0xfc	; 252
	.db #0xfc	; 252
	.db #0xff	; 255
	.db #0x1f	; 31
	.db #0xff	; 255
	.db #0xc1	; 193
	.db #0xff	; 255
	.db #0x47	; 71	'G'
	.db #0xf8	; 248
	.db #0xf8	; 248
	.db #0x80	; 128
	.db #0x80	; 128
	.db #0x00	; 0
	.db #0x00	; 0
	.db #0x00	; 0
	.db #0x00	; 0
	.db #0x01	; 1
	.db #0x01	; 1
	.db #0x41	; 65	'A'
	.db #0x41	; 65	'A'
	.db #0x3b	; 59
	.db #0x3a	; 58
	.db #0x1f	; 31
	.db #0x14	; 20
	.db #0x3a	; 58
	.db #0x24	; 36
	.db #0x19	; 25
	.db #0x12	; 18
	.db #0x76	; 118	'v'
	.db #0x60	; 96
	.db #0x36	; 54	'6'
	.db #0x21	; 33
	.db #0x19	; 25
	.db #0x14	; 20
	.db #0x3a	; 58
	.db #0x38	; 56	'8'
	.db #0x0f	; 15
	.db #0x0a	; 10
	.db #0x1d	; 29
	.db #0x1d	; 29
	.db #0x21	; 33
	.db #0x21	; 33
	.db #0x00	; 0
	.db #0x00	; 0
	.db #0x00	; 0
	.db #0x00	; 0
	.db #0x00	; 0
	.db #0x00	; 0
	.db #0x00	; 0
	.db #0x00	; 0
	.db #0x84	; 132
	.db #0x84	; 132
	.db #0xb8	; 184
	.db #0xb8	; 184
	.db #0xf0	; 240
	.db #0x50	; 80	'P'
	.db #0x5c	; 92
	.db #0x1c	; 28
	.db #0x98	; 152
	.db #0x28	; 40
	.db #0x6c	; 108	'l'
	.db #0x84	; 132
	.db #0x6e	; 110	'n'
	.db #0x06	; 6
	.db #0x9c	; 156
	.db #0x44	; 68	'D'
	.db #0x5e	; 94
	.db #0x0e	; 14
	.db #0xf8	; 248
	.db #0x28	; 40
	.db #0xdc	; 220
	.db #0x5c	; 92
	.db #0x82	; 130
	.db #0x82	; 130
	.db #0x80	; 128
	.db #0x80	; 128
	.db #0x00	; 0
	.db #0x00	; 0
	.db #0x80	; 128
	.db #0x80	; 128
	.db #0x60	; 96
	.db #0x60	; 96
	.db #0x3d	; 61
	.db #0x3d	; 61
	.db #0x1f	; 31
	.db #0x12	; 18
	.db #0x1b	; 27
	.db #0x10	; 16
	.db #0x0d	; 13
	.db #0x08	; 8
	.db #0x3a	; 58
	.db #0x30	; 48	'0'
	.db #0xfc	; 252
	.db #0xc0	; 192
	.db #0x7c	; 124
	.db #0x70	; 112	'p'
	.db #0x0a	; 10
	.db #0x08	; 8
	.db #0x0c	; 12
	.db #0x08	; 8
	.db #0x1b	; 27
	.db #0x10	; 16
	.db #0x1f	; 31
	.db #0x14	; 20
	.db #0x3b	; 59
	.db #0x3a	; 58
	.db #0x63	; 99	'c'
	.db #0x63	; 99	'c'
	.db #0x81	; 129
	.db #0x81	; 129
	.db #0x81	; 129
	.db #0x81	; 129
	.db #0xc6	; 198
	.db #0xc6	; 198
	.db #0xdc	; 220
	.db #0x5c	; 92
	.db #0xf8	; 248
	.db #0x28	; 40
	.db #0xd8	; 216
	.db #0x08	; 8
	.db #0x30	; 48	'0'
	.db #0x10	; 16
	.db #0x50	; 80	'P'
	.db #0x10	; 16
	.db #0x3e	; 62
	.db #0x0e	; 14
	.db #0x3f	; 63
	.db #0x03	; 3
	.db #0x5c	; 92
	.db #0x0c	; 12
	.db #0xb0	; 176
	.db #0x10	; 16
	.db #0xd8	; 216
	.db #0x08	; 8
	.db #0xf8	; 248
	.db #0x48	; 72	'H'
	.db #0xbc	; 188
	.db #0xbc	; 188
	.db #0x06	; 6
	.db #0x06	; 6
	.db #0x01	; 1
	.db #0x01	; 1
	.db #0x00	; 0
	.db #0x00	; 0
	.db #0xe0	; 224
	.db #0xc0	; 192
	.db #0xa3	; 163
	.db #0xe3	; 227
	.db #0x80	; 128
	.db #0xe5	; 229
	.db #0x00	; 0
	.db #0x1e	; 30
	.db #0x03	; 3
	.db #0x0f	; 15
	.db #0x7f	; 127
	.db #0x7f	; 127
	.db #0x47	; 71	'G'
	.db #0x46	; 70	'F'
	.db #0x0f	; 15
	.db #0x0c	; 12
	.db #0x0f	; 15
	.db #0x09	; 9
	.db #0x1f	; 31
	.db #0x18	; 24
	.db #0x97	; 151
	.db #0x6f	; 111	'o'
	.db #0x6c	; 108	'l'
	.db #0x94	; 148
	.db #0x90	; 144
	.db #0x68	; 104	'h'
	.db #0x50	; 80	'P'
	.db #0x28	; 40
	.db #0x28	; 40
	.db #0x10	; 16
	.db #0x00	; 0
	.db #0x00	; 0
	.db #0x06	; 6
	.db #0x06	; 6
	.db #0xff	; 255
	.db #0xf9	; 249
	.db #0x7e	; 126
	.db #0x72	; 114	'r'
	.db #0xfe	; 254
	.db #0xc2	; 194
	.db #0xfc	; 252
	.db #0x84	; 132
	.db #0xf8	; 248
	.db #0x08	; 8
	.db #0xf8	; 248
	.db #0x68	; 104	'h'
	.db #0xf0	; 240
	.db #0x90	; 144
	.db #0xd0	; 208
	.db #0x30	; 48	'0'
	.db #0xa0	; 160
	.db #0xe0	; 224
	.db #0x40	; 64
	.db #0x40	; 64
	.db #0x00	; 0
	.db #0x00	; 0
	.db #0x00	; 0
	.db #0x00	; 0
	.db #0x00	; 0
	.db #0x00	; 0
	.db #0x00	; 0
	.db #0x00	; 0
_projectiletiles:
	.db #0x40	; 64
	.db #0x40	; 64
	.db #0xe0	; 224
	.db #0xa0	; 160
	.db #0x40	; 64
	.db #0x40	; 64
	.db #0x00	; 0
	.db #0x00	; 0
	.db #0x00	; 0
	.db #0x00	; 0
	.db #0x00	; 0
	.db #0x00	; 0
	.db #0x00	; 0
	.db #0x00	; 0
	.db #0x00	; 0
	.db #0x00	; 0
	.db #0x40	; 64
	.db #0x60	; 96
	.db #0x70	; 112	'p'
	.db #0x90	; 144
	.db #0xe0	; 224
	.db #0x90	; 144
	.db #0x20	; 32
	.db #0x60	; 96
	.db #0x00	; 0
	.db #0x00	; 0
	.db #0x00	; 0
	.db #0x00	; 0
	.db #0x00	; 0
	.db #0x00	; 0
	.db #0x00	; 0
	.db #0x00	; 0
	.db #0xff	; 255
	.db #0xff	; 255
	.db #0xff	; 255
	.db #0x00	; 0
	.db #0xff	; 255
	.db #0xff	; 255
	.db #0x00	; 0
	.db #0x00	; 0
	.db #0x00	; 0
	.db #0x00	; 0
	.db #0x00	; 0
	.db #0x00	; 0
	.db #0x00	; 0
	.db #0x00	; 0
	.db #0x00	; 0
	.db #0x00	; 0
	.db #0x3c	; 60
	.db #0x3c	; 60
	.db #0xf7	; 247
	.db #0xef	; 239
	.db #0x6e	; 110	'n'
	.db #0x76	; 118	'v'
	.db #0x34	; 52	'4'
	.db #0x2c	; 44
	.db #0x2c	; 44
	.db #0x34	; 52	'4'
	.db #0x76	; 118	'v'
	.db #0x6e	; 110	'n'
	.db #0x2c	; 44
	.db #0x34	; 52	'4'
	.db #0x18	; 24
	.db #0x18	; 24
_goodroadmap:
	.db #0x21	; 33
	.db #0x21	; 33
	.db #0x21	; 33
	.db #0x00	; 0
	.db #0x00	; 0
	.db #0x00	; 0
	.db #0x25	; 37
	.db #0x26	; 38
	.db #0x00	; 0
	.db #0x23	; 35
	.db #0x24	; 36
	.db #0x00	; 0
	.db #0x27	; 39
	.db #0x28	; 40
	.db #0x00	; 0
	.db #0x00	; 0
	.db #0x00	; 0
	.db #0x00	; 0
	.db #0x22	; 34
	.db #0x22	; 34
	.db #0x22	; 34
_holestartmap:
	.db #0x21	; 33
	.db #0x21	; 33
	.db #0x21	; 33
	.db #0x29	; 41
	.db #0x00	; 0
	.db #0x00	; 0
	.db #0x2a	; 42
	.db #0x2b	; 43
	.db #0x25	; 37
	.db #0x26	; 38
	.db #0x2c	; 44
	.db #0x30	; 48	'0'
	.db #0x23	; 35
	.db #0x2d	; 45
	.db #0x2e	; 46
	.db #0x33	; 51	'3'
	.db #0x27	; 39
	.db #0x2f	; 47
	.db #0x30	; 48	'0'
	.db #0x33	; 51	'3'
	.db #0x00	; 0
	.db #0x31	; 49	'1'
	.db #0x33	; 51	'3'
	.db #0x33	; 51	'3'
	.db #0x22	; 34
	.db #0x32	; 50	'2'
	.db #0x3c	; 60
	.db #0x3c	; 60
_holemap:
	.db #0x29	; 41
	.db #0x29	; 41
	.db #0x29	; 41
	.db #0x3a	; 58
	.db #0x3a	; 58
	.db #0x3a	; 58
	.db #0x33	; 51	'3'
	.db #0x33	; 51	'3'
	.db #0x33	; 51	'3'
	.db #0x33	; 51	'3'
	.db #0x33	; 51	'3'
	.db #0x33	; 51	'3'
	.db #0x33	; 51	'3'
	.db #0x33	; 51	'3'
	.db #0x33	; 51	'3'
	.db #0x33	; 51	'3'
	.db #0x33	; 51	'3'
	.db #0x33	; 51	'3'
	.db #0x3c	; 60
	.db #0x3c	; 60
	.db #0x3c	; 60
_holeendmap:
	.db #0x29	; 41
	.db #0x29	; 41
	.db #0x21	; 33
	.db #0x3a	; 58
	.db #0x34	; 52	'4'
	.db #0x00	; 0
	.db #0x33	; 51	'3'
	.db #0x35	; 53	'5'
	.db #0x00	; 0
	.db #0x36	; 54	'6'
	.db #0x37	; 55	'7'
	.db #0x00	; 0
	.db #0x38	; 56	'8'
	.db #0x28	; 40
	.db #0x00	; 0
	.db #0x39	; 57	'9'
	.db #0x00	; 0
	.db #0x00	; 0
	.db #0x22	; 34
	.db #0x22	; 34
	.db #0x22	; 34
_cloudmap:
	.db #0x14	; 20
	.db #0x15	; 21
	.db #0x16	; 22
	.db #0x1c	; 28
	.db #0x1d	; 29
	.db #0x1e	; 30
	.db #0x1f	; 31
	.db #0x20	; 32
	.db #0x14	; 20
	.db #0x18	; 24
	.db #0x19	; 25
	.db #0x15	; 21
	.db #0x16	; 22
	.db #0x1c	; 28
	.db #0x1d	; 29
	.db #0x1e	; 30
	.db #0x1f	; 31
	.db #0x20	; 32
	.db #0x17	; 23
	.db #0x18	; 24
	.db #0x19	; 25
	.db #0x19	; 25
	.db #0x1a	; 26
	.db #0x1b	; 27
	.db #0x1c	; 28
	.db #0x1d	; 29
	.db #0x1e	; 30
	.db #0x1f	; 31
	.db #0x20	; 32
	.db #0x14	; 20
	.db #0x15	; 21
	.db #0x16	; 22
_hudmap:
	.db #0x06	; 6
	.db #0x07	; 7
	.db #0x0b	; 11
	.db #0x0e	; 14
	.db #0x0e	; 14
	.db #0x0e	; 14
	.db #0x0e	; 14
	.db #0x00	; 0
	.db #0x00	; 0
	.db #0x0c	; 12
	.db #0x11	; 17
	.db #0x0d	; 13
	.db #0x00	; 0
	.db #0x00	; 0
	.db #0x00	; 0
	.db #0x10	; 16
	.db #0x0b	; 11
	.db #0x04	; 4
_deserttiles:
	.db #0x00	; 0
	.db #0x00	; 0
	.db #0x20	; 32
	.db #0x00	; 0
	.db #0x02	; 2
	.db #0x00	; 0
	.db #0x00	; 0
	.db #0x00	; 0
	.db #0x10	; 16
	.db #0x00	; 0
	.db #0x00	; 0
	.db #0x00	; 0
	.db #0x40	; 64
	.db #0x00	; 0
	.db #0x00	; 0
	.db #0x00	; 0
	.db #0x00	; 0
	.db #0x00	; 0
	.db #0x02	; 2
	.db #0x00	; 0
	.db #0x08	; 8
	.db #0x01	; 1
	.db #0x20	; 32
	.db #0x05	; 5
	.db #0x04	; 4
	.db #0x13	; 19
	.db #0x56	; 86	'V'
	.db #0x09	; 9
	.db #0x00	; 0
	.db #0x25	; 37
	.db #0x4c	; 76	'L'
	.db #0x13	; 19
	.db #0x02	; 2
	.db #0x49	; 73	'I'
	.db #0x08	; 8
	.db #0x25	; 37
	.db #0x00	; 0
	.db #0x13	; 19
	.db #0x36	; 54	'6'
	.db #0x49	; 73	'I'
	.db #0x00	; 0
	.db #0xff	; 255
	.db #0x00	; 0
	.db #0x00	; 0
	.db #0x00	; 0
	.db #0x00	; 0
	.db #0x00	; 0
	.db #0x00	; 0
	.db #0x00	; 0
	.db #0x00	; 0
	.db #0x40	; 64
	.db #0x00	; 0
	.db #0x10	; 16
	.db #0x80	; 128
	.db #0x04	; 4
	.db #0xa0	; 160
	.db #0x20	; 32
	.db #0xc8	; 200
	.db #0x6a	; 106	'j'
	.db #0x90	; 144
	.db #0x00	; 0
	.db #0xa4	; 164
	.db #0x32	; 50	'2'
	.db #0xc8	; 200
	.db #0x40	; 64
	.db #0x92	; 146
	.db #0x10	; 16
	.db #0xa4	; 164
	.db #0x00	; 0
	.db #0xc8	; 200
	.db #0x6c	; 108	'l'
	.db #0x92	; 146
	.db #0x00	; 0
	.db #0xff	; 255
	.db #0x00	; 0
	.db #0x00	; 0
	.db #0x00	; 0
	.db #0x00	; 0
	.db #0x00	; 0
	.db #0x00	; 0
	.db #0x00	; 0
	.db #0x00	; 0
	.db #0x5a	; 90	'Z'
	.db #0x00	; 0
	.db #0x00	; 0
	.db #0xbd	; 189
	.db #0x34	; 52	'4'
	.db #0x89	; 137
	.db #0xa5	; 165
	.db #0x5a	; 90	'Z'
	.db #0x08	; 8
	.db #0x52	; 82	'R'
	.db #0xf7	; 247
	.db #0x08	; 8
	.db #0x00	; 0
	.db #0xff	; 255
	.db #0x00	; 0
	.db #0x00	; 0
	.db #0x00	; 0
	.db #0x00	; 0
	.db #0x10	; 16
	.db #0x08	; 8
	.db #0x4a	; 74	'J'
	.db #0x10	; 16
	.db #0x24	; 36
	.db #0x5a	; 90	'Z'
	.db #0x10	; 16
	.db #0x2c	; 44
	.db #0x00	; 0
	.db #0x7e	; 126
	.db #0x00	; 0
	.db #0x00	; 0
	.db #0x00	; 0
	.db #0x00	; 0
	.db #0x00	; 0
	.db #0x00	; 0
	.db #0x00	; 0
	.db #0x00	; 0
	.db #0x00	; 0
	.db #0x01	; 1
	.db #0x00	; 0
	.db #0x07	; 7
	.db #0x00	; 0
	.db #0x0f	; 15
	.db #0x00	; 0
	.db #0x3f	; 63
	.db #0x03	; 3
	.db #0xfc	; 252
	.db #0x00	; 0
	.db #0x00	; 0
	.db #0x00	; 0
	.db #0x00	; 0
	.db #0x00	; 0
	.db #0x7c	; 124
	.db #0x1c	; 28
	.db #0xe2	; 226
	.db #0x1c	; 28
	.db #0xe3	; 227
	.db #0x6e	; 110	'n'
	.db #0x91	; 145
	.db #0x87	; 135
	.db #0x78	; 120	'x'
	.db #0x87	; 135
	.db #0x78	; 120	'x'
	.db #0x00	; 0
	.db #0x00	; 0
	.db #0x00	; 0
	.db #0x00	; 0
	.db #0x00	; 0
	.db #0x00	; 0
	.db #0x00	; 0
	.db #0x00	; 0
	.db #0x00	; 0
	.db #0x00	; 0
	.db #0x00	; 0
	.db #0x80	; 128
	.db #0x00	; 0
	.db #0xc0	; 192
	.db #0x80	; 128
	.db #0x60	; 96
	.db #0x00	; 0
	.db #0x03	; 3
	.db #0x00	; 0
	.db #0x0f	; 15
	.db #0x06	; 6
	.db #0x19	; 25
	.db #0x04	; 4
	.db #0x3b	; 59
	.db #0x0c	; 12
	.db #0x33	; 51	'3'
	.db #0x00	; 0
	.db #0x7f	; 127
	.db #0x00	; 0
	.db #0xff	; 255
	.db #0x00	; 0
	.db #0x00	; 0
	.db #0x02	; 2
	.db #0xfd	; 253
	.db #0x06	; 6
	.db #0xf9	; 249
	.db #0x0c	; 12
	.db #0xf3	; 243
	.db #0x18	; 24
	.db #0xe7	; 231
	.db #0x30	; 48	'0'
	.db #0xcf	; 207
	.db #0x60	; 96
	.db #0x9f	; 159
	.db #0x40	; 64
	.db #0xbf	; 191
	.db #0x00	; 0
	.db #0x00	; 0
	.db #0x03	; 3
	.db #0xfc	; 252
	.db #0x03	; 3
	.db #0xfc	; 252
	.db #0x03	; 3
	.db #0xfc	; 252
	.db #0x07	; 7
	.db #0xf8	; 248
	.db #0x01	; 1
	.db #0xfe	; 254
	.db #0x00	; 0
	.db #0xff	; 255
	.db #0x00	; 0
	.db #0xff	; 255
	.db #0x00	; 0
	.db #0x00	; 0
	.db #0xe0	; 224
	.db #0x10	; 16
	.db #0xe0	; 224
	.db #0x18	; 24
	.db #0xf0	; 240
	.db #0x0c	; 12
	.db #0xfc	; 252
	.db #0x03	; 3
	.db #0xfe	; 254
	.db #0x01	; 1
	.db #0x1f	; 31
	.db #0xe0	; 224
	.db #0x07	; 7
	.db #0xf8	; 248
	.db #0x00	; 0
	.db #0x00	; 0
	.db #0x00	; 0
	.db #0x00	; 0
	.db #0x00	; 0
	.db #0x00	; 0
	.db #0x00	; 0
	.db #0x00	; 0
	.db #0x00	; 0
	.db #0x00	; 0
	.db #0x00	; 0
	.db #0x80	; 128
	.db #0x00	; 0
	.db #0xe0	; 224
	.db #0xe0	; 224
	.db #0x10	; 16
	.db #0x00	; 0
	.db #0x00	; 0
	.db #0x00	; 0
	.db #0x00	; 0
	.db #0x00	; 0
	.db #0x00	; 0
	.db #0x00	; 0
	.db #0x00	; 0
	.db #0x00	; 0
	.db #0x00	; 0
	.db #0x00	; 0
	.db #0x00	; 0
	.db #0x00	; 0
	.db #0x00	; 0
	.db #0x00	; 0
	.db #0x01	; 1
	.db #0x00	; 0
	.db #0x00	; 0
	.db #0x00	; 0
	.db #0x00	; 0
	.db #0x00	; 0
	.db #0x01	; 1
	.db #0x00	; 0
	.db #0x03	; 3
	.db #0x00	; 0
	.db #0x07	; 7
	.db #0x00	; 0
	.db #0x3f	; 63
	.db #0x00	; 0
	.db #0xff	; 255
	.db #0x00	; 0
	.db #0xff	; 255
	.db #0x00	; 0
	.db #0x00	; 0
	.db #0x00	; 0
	.db #0x00	; 0
	.db #0x00	; 0
	.db #0x00	; 0
	.db #0x00	; 0
	.db #0x00	; 0
	.db #0x00	; 0
	.db #0x07	; 7
	.db #0x01	; 1
	.db #0x0e	; 14
	.db #0x01	; 1
	.db #0x0e	; 14
	.db #0x00	; 0
	.db #0x1f	; 31
	.db #0x00	; 0
	.db #0x3f	; 63
	.db #0x00	; 0
	.db #0x00	; 0
	.db #0x00	; 0
	.db #0x00	; 0
	.db #0x00	; 0
	.db #0x00	; 0
	.db #0x00	; 0
	.db #0x80	; 128
	.db #0x00	; 0
	.db #0xfc	; 252
	.db #0x80	; 128
	.db #0x7f	; 127
	.db #0xe0	; 224
	.db #0x1f	; 31
	.db #0x7c	; 124
	.db #0x83	; 131
	.db #0x00	; 0
	.db #0x00	; 0
	.db #0x00	; 0
	.db #0x00	; 0
	.db #0x00	; 0
	.db #0x00	; 0
	.db #0x00	; 0
	.db #0x00	; 0
	.db #0x00	; 0
	.db #0x00	; 0
	.db #0x00	; 0
	.db #0x70	; 112	'p'
	.db #0x00	; 0
	.db #0xfe	; 254
	.db #0x00	; 0
	.db #0xff	; 255
	.db #0x00	; 0
	.db #0x00	; 0
	.db #0x00	; 0
	.db #0x00	; 0
	.db #0x00	; 0
	.db #0x00	; 0
	.db #0x00	; 0
	.db #0x00	; 0
	.db #0x00	; 0
	.db #0x00	; 0
	.db #0x00	; 0
	.db #0x00	; 0
	.db #0x00	; 0
	.db #0x00	; 0
	.db #0x80	; 128
	.db #0x7e	; 126
	.db #0x00	; 0
	.db #0x00	; 0
	.db #0x00	; 0
	.db #0x00	; 0
	.db #0x00	; 0
	.db #0x03	; 3
	.db #0x00	; 0
	.db #0x0f	; 15
	.db #0x00	; 0
	.db #0x0f	; 15
	.db #0x00	; 0
	.db #0x0f	; 15
	.db #0x00	; 0
	.db #0x1f	; 31
	.db #0x00	; 0
	.db #0x7f	; 127
	.db #0x00	; 0
	.db #0x00	; 0
	.db #0x00	; 0
	.db #0xff	; 255
	.db #0x38	; 56	'8'
	.db #0xc7	; 199
	.db #0x7c	; 124
	.db #0x83	; 131
	.db #0x7e	; 126
	.db #0x81	; 129
	.db #0x3f	; 63
	.db #0xc0	; 192
	.db #0x3f	; 63
	.db #0xc0	; 192
	.db #0x3f	; 63
	.db #0xc0	; 192
	.db #0x00	; 0
	.db #0x00	; 0
	.db #0x00	; 0
	.db #0x80	; 128
	.db #0x00	; 0
	.db #0xf8	; 248
	.db #0x20	; 32
	.db #0xde	; 222
	.db #0x38	; 56	'8'
	.db #0xc7	; 199
	.db #0x0e	; 14
	.db #0xf1	; 241
	.db #0x07	; 7
	.db #0xf8	; 248
	.db #0x01	; 1
	.db #0xfe	; 254
	.db #0x00	; 0
	.db #0x00	; 0
	.db #0x00	; 0
	.db #0x00	; 0
	.db #0x00	; 0
	.db #0x00	; 0
	.db #0x00	; 0
	.db #0x00	; 0
	.db #0x00	; 0
	.db #0x80	; 128
	.db #0x00	; 0
	.db #0xe0	; 224
	.db #0x80	; 128
	.db #0x78	; 120	'x'
	.db #0xc0	; 192
	.db #0x3f	; 63
	.db #0x00	; 0
	.db #0xff	; 255
	.db #0x00	; 0
	.db #0xff	; 255
	.db #0x01	; 1
	.db #0xfe	; 254
	.db #0x07	; 7
	.db #0xf8	; 248
	.db #0x0f	; 15
	.db #0xf0	; 240
	.db #0x3f	; 63
	.db #0xc0	; 192
	.db #0x7f	; 127
	.db #0x80	; 128
	.db #0x00	; 0
	.db #0x00	; 0
	.db #0x7f	; 127
	.db #0x80	; 128
	.db #0xff	; 255
	.db #0x00	; 0
	.db #0xff	; 255
	.db #0x00	; 0
	.db #0xff	; 255
	.db #0x00	; 0
	.db #0xff	; 255
	.db #0x00	; 0
	.db #0xff	; 255
	.db #0x00	; 0
	.db #0xff	; 255
	.db #0x00	; 0
	.db #0x00	; 0
	.db #0x00	; 0
	.db #0x00	; 0
	.db #0xff	; 255
	.db #0x80	; 128
	.db #0x7f	; 127
	.db #0xe0	; 224
	.db #0x1f	; 31
	.db #0xf0	; 240
	.db #0x0f	; 15
	.db #0xf8	; 248
	.db #0x07	; 7
	.db #0xfc	; 252
	.db #0x03	; 3
	.db #0xfc	; 252
	.db #0x03	; 3
	.db #0x00	; 0
	.db #0x00	; 0
	.db #0xfc	; 252
	.db #0x03	; 3
	.db #0x3e	; 62
	.db #0xc1	; 193
	.db #0x03	; 3
	.db #0xfc	; 252
	.db #0x01	; 1
	.db #0xfe	; 254
	.db #0x00	; 0
	.db #0xff	; 255
	.db #0x00	; 0
	.db #0xff	; 255
	.db #0x00	; 0
	.db #0xff	; 255
	.db #0x00	; 0
	.db #0x00	; 0
	.db #0x00	; 0
	.db #0xff	; 255
	.db #0x00	; 0
	.db #0xff	; 255
	.db #0xc0	; 192
	.db #0x3f	; 63
	.db #0xc0	; 192
	.db #0x3f	; 63
	.db #0x00	; 0
	.db #0xff	; 255
	.db #0x00	; 0
	.db #0xff	; 255
	.db #0x00	; 0
	.db #0xff	; 255
	.db #0x00	; 0
	.db #0x00	; 0
	.db #0x3f	; 63
	.db #0xc0	; 192
	.db #0x1f	; 31
	.db #0xe0	; 224
	.db #0x0f	; 15
	.db #0xf0	; 240
	.db #0x0f	; 15
	.db #0xf0	; 240
	.db #0x07	; 7
	.db #0xf8	; 248
	.db #0x07	; 7
	.db #0xf8	; 248
	.db #0x03	; 3
	.db #0xfc	; 252
	.db #0x00	; 0
	.db #0x00	; 0
	.db #0xc0	; 192
	.db #0x3f	; 63
	.db #0xe0	; 224
	.db #0x1f	; 31
	.db #0xf8	; 248
	.db #0x07	; 7
	.db #0xfe	; 254
	.db #0x01	; 1
	.db #0xff	; 255
	.db #0x00	; 0
	.db #0xff	; 255
	.db #0x00	; 0
	.db #0xff	; 255
	.db #0x00	; 0
	.db #0x00	; 0
	.db #0x00	; 0
	.db #0x00	; 0
	.db #0xff	; 255
	.db #0x06	; 6
	.db #0xf9	; 249
	.db #0x03	; 3
	.db #0xfc	; 252
	.db #0x00	; 0
	.db #0xff	; 255
	.db #0x80	; 128
	.db #0x7f	; 127
	.db #0x80	; 128
	.db #0x7f	; 127
	.db #0xc0	; 192
	.db #0x3f	; 63
	.db #0x00	; 0
	.db #0x00	; 0
	.db #0x00	; 0
	.db #0xe0	; 224
	.db #0x00	; 0
	.db #0xf0	; 240
	.db #0xe0	; 224
	.db #0x1c	; 28
	.db #0x38	; 56	'8'
	.db #0xc7	; 199
	.db #0x0c	; 12
	.db #0xf3	; 243
	.db #0x04	; 4
	.db #0xfb	; 251
	.db #0x00	; 0
	.db #0xff	; 255
	.db #0x00	; 0
	.db #0x00	; 0
	.db #0x00	; 0
	.db #0x00	; 0
	.db #0x00	; 0
	.db #0x00	; 0
	.db #0x00	; 0
	.db #0x00	; 0
	.db #0x00	; 0
	.db #0x80	; 128
	.db #0x00	; 0
	.db #0xf0	; 240
	.db #0x00	; 0
	.db #0xf8	; 248
	.db #0x00	; 0
	.db #0xf8	; 248
	.db #0x00	; 0
	.db #0x00	; 0
	.db #0x00	; 0
	.db #0x00	; 0
	.db #0x00	; 0
	.db #0x00	; 0
	.db #0x00	; 0
	.db #0x00	; 0
	.db #0x00	; 0
	.db #0x00	; 0
	.db #0x00	; 0
	.db #0x00	; 0
	.db #0x00	; 0
	.db #0x00	; 0
	.db #0x00	; 0
	.db #0x00	; 0
	.db #0x00	; 0
	.db #0x70	; 112	'p'
	.db #0x00	; 0
	.db #0x00	; 0
	.db #0x00	; 0
	.db #0x01	; 1
	.db #0x00	; 0
	.db #0x03	; 3
	.db #0x01	; 1
	.db #0x06	; 6
	.db #0x03	; 3
	.db #0x0c	; 12
	.db #0x03	; 3
	.db #0x1c	; 28
	.db #0x00	; 0
	.db #0x1f	; 31
	.db #0x00	; 0
	.db #0x00	; 0
	.db #0x60	; 96
	.db #0x98	; 152
	.db #0x70	; 112	'p'
	.db #0x8c	; 140
	.db #0xc0	; 192
	.db #0x3f	; 63
	.db #0xe1	; 225
	.db #0x1e	; 30
	.db #0xc1	; 193
	.db #0x3e	; 62
	.db #0x00	; 0
	.db #0xff	; 255
	.db #0x00	; 0
	.db #0xff	; 255
	.db #0x00	; 0
	.db #0x00	; 0
	.db #0x00	; 0
	.db #0x00	; 0
	.db #0x00	; 0
	.db #0x00	; 0
	.db #0x00	; 0
	.db #0x00	; 0
	.db #0x00	; 0
	.db #0xc0	; 192
	.db #0x80	; 128
	.db #0x60	; 96
	.db #0xc0	; 192
	.db #0x20	; 32
	.db #0x00	; 0
	.db #0xf0	; 240
	.db #0x00	; 0
	.db #0x00	; 0
_scorpbosstiles:
	.db #0x00	; 0
	.db #0x00	; 0
	.db #0xff	; 255
	.db #0xff	; 255
	.db #0x80	; 128
	.db #0x80	; 128
	.db #0x7f	; 127
	.db #0x40	; 64
	.db #0x80	; 128
	.db #0xff	; 255
	.db #0xff	; 255
	.db #0xff	; 255
	.db #0x00	; 0
	.db #0x00	; 0
	.db #0xff	; 255
	.db #0xff	; 255
	.db #0x00	; 0
	.db #0x00	; 0
	.db #0xff	; 255
	.db #0xff	; 255
	.db #0x03	; 3
	.db #0x02	; 2
	.db #0xfe	; 254
	.db #0x04	; 4
	.db #0x03	; 3
	.db #0xfe	; 254
	.db #0xff	; 255
	.db #0xff	; 255
	.db #0x00	; 0
	.db #0x00	; 0
	.db #0xff	; 255
	.db #0xff	; 255
	.db #0x80	; 128
	.db #0x80	; 128
	.db #0xe0	; 224
	.db #0x60	; 96
	.db #0x78	; 120	'x'
	.db #0x38	; 56	'8'
	.db #0x36	; 54	'6'
	.db #0x96	; 150
	.db #0x71	; 113	'q'
	.db #0x21	; 33
	.db #0xcc	; 204
	.db #0x70	; 112	'p'
	.db #0xb3	; 179
	.db #0xbc	; 188
	.db #0xfc	; 252
	.db #0xff	; 255
	.db #0x00	; 0
	.db #0x00	; 0
	.db #0x00	; 0
	.db #0x00	; 0
	.db #0x00	; 0
	.db #0x00	; 0
	.db #0x00	; 0
	.db #0x00	; 0
	.db #0x80	; 128
	.db #0x80	; 128
	.db #0x7f	; 127
	.db #0x7f	; 127
	.db #0x18	; 24
	.db #0x18	; 24
	.db #0xc6	; 198
	.db #0x06	; 6
	.db #0x00	; 0
	.db #0x00	; 0
	.db #0x00	; 0
	.db #0x00	; 0
	.db #0x0c	; 12
	.db #0x0c	; 12
	.db #0x07	; 7
	.db #0x07	; 7
	.db #0x0f	; 15
	.db #0x08	; 8
	.db #0x07	; 7
	.db #0x0f	; 15
	.db #0x0c	; 12
	.db #0x0c	; 12
	.db #0x00	; 0
	.db #0x00	; 0
	.db #0x00	; 0
	.db #0x00	; 0
	.db #0x00	; 0
	.db #0x00	; 0
	.db #0x00	; 0
	.db #0x00	; 0
	.db #0xfe	; 254
	.db #0xfe	; 254
	.db #0xff	; 255
	.db #0x01	; 1
	.db #0xf9	; 249
	.db #0xfb	; 251
	.db #0x09	; 9
	.db #0x0b	; 11
	.db #0x04	; 4
	.db #0x05	; 5
	.db #0x03	; 3
	.db #0x03	; 3
	.db #0x00	; 0
	.db #0x00	; 0
	.db #0x00	; 0
	.db #0x00	; 0
	.db #0x00	; 0
	.db #0x00	; 0
	.db #0x00	; 0
	.db #0x00	; 0
	.db #0x00	; 0
	.db #0x00	; 0
	.db #0x00	; 0
	.db #0x00	; 0
	.db #0x00	; 0
	.db #0x00	; 0
	.db #0x31	; 49	'1'
	.db #0xc1	; 193
	.db #0xcf	; 207
	.db #0xf0	; 240
	.db #0x31	; 49	'1'
	.db #0x3f	; 63
	.db #0x0f	; 15
	.db #0x0e	; 14
	.db #0x03	; 3
	.db #0x03	; 3
	.db #0x01	; 1
	.db #0x01	; 1
	.db #0x01	; 1
	.db #0x01	; 1
	.db #0x01	; 1
	.db #0x01	; 1
	.db #0xc0	; 192
	.db #0xc0	; 192
	.db #0xe0	; 224
	.db #0xa0	; 160
	.db #0xb0	; 176
	.db #0x10	; 16
	.db #0x18	; 24
	.db #0x48	; 72	'H'
	.db #0xb0	; 176
	.db #0x10	; 16
	.db #0xf0	; 240
	.db #0xb0	; 176
	.db #0x50	; 80	'P'
	.db #0xd0	; 208
	.db #0x10	; 16
	.db #0x90	; 144
	.db #0x04	; 4
	.db #0xfd	; 253
	.db #0x04	; 4
	.db #0xfd	; 253
	.db #0x04	; 4
	.db #0x05	; 5
	.db #0x02	; 2
	.db #0x02	; 2
	.db #0x02	; 2
	.db #0x02	; 2
	.db #0x02	; 2
	.db #0x02	; 2
	.db #0x02	; 2
	.db #0x02	; 2
	.db #0x7f	; 127
	.db #0x7f	; 127
	.db #0x80	; 128
	.db #0x80	; 128
	.db #0x87	; 135
	.db #0x87	; 135
	.db #0x84	; 132
	.db #0x84	; 132
	.db #0x49	; 73	'I'
	.db #0xc8	; 200
	.db #0x4a	; 74	'J'
	.db #0xc9	; 201
	.db #0x55	; 85	'U'
	.db #0xd3	; 211
	.db #0x55	; 85	'U'
	.db #0xd3	; 211
	.db #0xff	; 255
	.db #0xff	; 255
	.db #0x20	; 32
	.db #0x1f	; 31
	.db #0xd0	; 208
	.db #0xaf	; 175
	.db #0x28	; 40
	.db #0x50	; 80	'P'
	.db #0x98	; 152
	.db #0x60	; 96
	.db #0x28	; 40
	.db #0xd0	; 208
	.db #0xd1	; 209
	.db #0xa1	; 161
	.db #0x21	; 33
	.db #0x01	; 1
	.db #0xff	; 255
	.db #0xff	; 255
	.db #0x02	; 2
	.db #0xfc	; 252
	.db #0x7d	; 125
	.db #0xfa	; 250
	.db #0x42	; 66	'B'
	.db #0x45	; 69	'E'
	.db #0x99	; 153
	.db #0x86	; 134
	.db #0xa2	; 162
	.db #0x9d	; 157
	.db #0x5d	; 93
	.db #0x3a	; 58
	.db #0x52	; 82	'R'
	.db #0x30	; 48	'0'
	.db #0xff	; 255
	.db #0xff	; 255
	.db #0x00	; 0
	.db #0x00	; 0
	.db #0x07	; 7
	.db #0x07	; 7
	.db #0x04	; 4
	.db #0x04	; 4
	.db #0x89	; 137
	.db #0x08	; 8
	.db #0x8a	; 138
	.db #0x09	; 9
	.db #0x15	; 21
	.db #0x13	; 19
	.db #0x15	; 21
	.db #0x13	; 19
	.db #0xff	; 255
	.db #0xff	; 255
	.db #0x20	; 32
	.db #0x1f	; 31
	.db #0xd0	; 208
	.db #0xaf	; 175
	.db #0x28	; 40
	.db #0x50	; 80	'P'
	.db #0x98	; 152
	.db #0x60	; 96
	.db #0x28	; 40
	.db #0xd0	; 208
	.db #0xd0	; 208
	.db #0xa0	; 160
	.db #0x20	; 32
	.db #0x00	; 0
	.db #0xe0	; 224
	.db #0xe0	; 224
	.db #0xa8	; 168
	.db #0xcc	; 204
	.db #0xa8	; 168
	.db #0xc8	; 200
	.db #0xa8	; 168
	.db #0xc8	; 200
	.db #0xa8	; 168
	.db #0xc8	; 200
	.db #0x54	; 84	'T'
	.db #0x64	; 100	'd'
	.db #0x54	; 84	'T'
	.db #0x64	; 100	'd'
	.db #0x54	; 84	'T'
	.db #0x64	; 100	'd'
	.db #0x5c	; 92
	.db #0x6c	; 108	'l'
	.db #0x00	; 0
	.db #0x00	; 0
	.db #0x00	; 0
	.db #0x00	; 0
	.db #0x00	; 0
	.db #0x00	; 0
	.db #0x00	; 0
	.db #0x00	; 0
	.db #0x0f	; 15
	.db #0x0f	; 15
	.db #0x14	; 20
	.db #0x18	; 24
	.db #0x12	; 18
	.db #0x1c	; 28
	.db #0x0d	; 13
	.db #0x0e	; 14
	.db #0x00	; 0
	.db #0x00	; 0
	.db #0x01	; 1
	.db #0x01	; 1
	.db #0x03	; 3
	.db #0x02	; 2
	.db #0x07	; 7
	.db #0x1c	; 28
	.db #0xff	; 255
	.db #0xff	; 255
	.db #0x00	; 0
	.db #0x00	; 0
	.db #0x00	; 0
	.db #0x00	; 0
	.db #0x00	; 0
	.db #0x00	; 0
	.db #0xfe	; 254
	.db #0x80	; 128
	.db #0xfc	; 252
	.db #0x00	; 0
	.db #0xf9	; 249
	.db #0x00	; 0
	.db #0xf3	; 243
	.db #0x00	; 0
	.db #0xff	; 255
	.db #0xff	; 255
	.db #0x00	; 0
	.db #0x00	; 0
	.db #0x00	; 0
	.db #0x00	; 0
	.db #0x00	; 0
	.db #0x00	; 0
	.db #0x7e	; 126
	.db #0x00	; 0
	.db #0xfc	; 252
	.db #0x00	; 0
	.db #0xf9	; 249
	.db #0x00	; 0
	.db #0xf3	; 243
	.db #0x00	; 0
	.db #0xff	; 255
	.db #0xff	; 255
	.db #0x00	; 0
	.db #0x00	; 0
	.db #0x00	; 0
	.db #0x00	; 0
	.db #0x00	; 0
	.db #0x00	; 0
	.db #0x7e	; 126
	.db #0x02	; 2
	.db #0xfc	; 252
	.db #0x04	; 4
	.db #0xf8	; 248
	.db #0x08	; 8
	.db #0xf0	; 240
	.db #0x10	; 16
	.db #0xe0	; 224
	.db #0xe0	; 224
	.db #0x00	; 0
	.db #0x00	; 0
	.db #0x0a	; 10
	.db #0x0c	; 12
	.db #0x05	; 5
	.db #0x06	; 6
	.db #0x06	; 6
	.db #0x04	; 4
	.db #0x0c	; 12
	.db #0x08	; 8
	.db #0x0c	; 12
	.db #0x08	; 8
	.db #0x18	; 24
	.db #0x10	; 16
	.db #0x1c	; 28
	.db #0x14	; 20
	.db #0x31	; 49	'1'
	.db #0x21	; 33
	.db #0xb1	; 177
	.db #0xa1	; 161
	.db #0x71	; 113	'q'
	.db #0x61	; 97	'a'
	.db #0x30	; 48	'0'
	.db #0x20	; 32
	.db #0x60	; 96
	.db #0x44	; 68	'D'
	.db #0x61	; 97	'a'
	.db #0x42	; 66	'B'
	.db #0xc4	; 196
	.db #0x88	; 136
	.db #0xc0	; 192
	.db #0x84	; 132
	.db #0x81	; 129
	.db #0x02	; 2
	.db #0xa8	; 168
	.db #0xcc	; 204
	.db #0x54	; 84	'T'
	.db #0x64	; 100	'd'
	.db #0x1e	; 30
	.db #0x1e	; 30
	.db #0x01	; 1
	.db #0x91	; 145
	.db #0xc0	; 192
	.db #0x20	; 32
	.db #0x90	; 144
	.db #0x88	; 136
	.db #0x80	; 128
	.db #0x90	; 144
	.db #0xc3	; 195
	.db #0x20	; 32
	.db #0x0c	; 12
	.db #0x93	; 147
	.db #0x73	; 115	's'
	.db #0x0f	; 15
	.db #0x3c	; 60
	.db #0x34	; 52	'4'
	.db #0xd6	; 214
	.db #0xe2	; 226
	.db #0xa3	; 163
	.db #0xc9	; 201
	.db #0x56	; 86	'V'
	.db #0x62	; 98	'b'
	.db #0x2c	; 44
	.db #0x34	; 52	'4'
	.db #0x38	; 56	'8'
	.db #0xf8	; 248
	.db #0xc0	; 192
	.db #0xc0	; 192
	.db #0x00	; 0
	.db #0x00	; 0
	.db #0x02	; 2
	.db #0x03	; 3
	.db #0x01	; 1
	.db #0x01	; 1
	.db #0x00	; 0
	.db #0x00	; 0
	.db #0x00	; 0
	.db #0x00	; 0
	.db #0x00	; 0
	.db #0x00	; 0
	.db #0x00	; 0
	.db #0x00	; 0
	.db #0x00	; 0
	.db #0x00	; 0
	.db #0x00	; 0
	.db #0x00	; 0
	.db #0xff	; 255
	.db #0x00	; 0
	.db #0x00	; 0
	.db #0xff	; 255
	.db #0xff	; 255
	.db #0xff	; 255
	.db #0x00	; 0
	.db #0x00	; 0
	.db #0x00	; 0
	.db #0x00	; 0
	.db #0x00	; 0
	.db #0x00	; 0
	.db #0x00	; 0
	.db #0x1f	; 31
	.db #0x00	; 0
	.db #0x3f	; 63
	.db #0xf3	; 243
	.db #0x16	; 22
	.db #0x24	; 36
	.db #0xef	; 239
	.db #0xe7	; 231
	.db #0xef	; 239
	.db #0x24	; 36
	.db #0x2c	; 44
	.db #0x24	; 36
	.db #0x2c	; 44
	.db #0x48	; 72	'H'
	.db #0x58	; 88	'X'
	.db #0x48	; 72	'H'
	.db #0xdc	; 220
	.db #0x48	; 72	'H'
	.db #0xd8	; 216
	.db #0xd4	; 212
	.db #0x64	; 100	'd'
	.db #0x2a	; 42
	.db #0xf2	; 242
	.db #0xeb	; 235
	.db #0xf3	; 243
	.db #0x15	; 21
	.db #0x19	; 25
	.db #0x15	; 21
	.db #0x19	; 25
	.db #0x0a	; 10
	.db #0x0c	; 12
	.db #0x0a	; 10
	.db #0x0c	; 12
	.db #0x05	; 5
	.db #0x06	; 6
	.db #0xfd	; 253
	.db #0x06	; 6
	.db #0x02	; 2
	.db #0xff	; 255
	.db #0xfe	; 254
	.db #0xff	; 255
	.db #0x01	; 1
	.db #0x01	; 1
	.db #0x01	; 1
	.db #0x01	; 1
	.db #0x90	; 144
	.db #0x80	; 128
	.db #0xe8	; 232
	.db #0xd7	; 215
	.db #0x14	; 20
	.db #0x2b	; 43
	.db #0x61	; 97	'a'
	.db #0x61	; 97	'a'
	.db #0xa0	; 160
	.db #0x3f	; 63
	.db #0xbf	; 191
	.db #0x3f	; 63
	.db #0x50	; 80	'P'
	.db #0x90	; 144
	.db #0x50	; 80	'P'
	.db #0x90	; 144
	.db #0xa9	; 169
	.db #0xc8	; 200
	.db #0xae	; 174
	.db #0xcd	; 205
	.db #0x51	; 81	'Q'
	.db #0xe2	; 226
	.db #0xd7	; 215
	.db #0x64	; 100	'd'
	.db #0x2a	; 42
	.db #0xf3	; 243
	.db #0xeb	; 235
	.db #0xf3	; 243
	.db #0x15	; 21
	.db #0x19	; 25
	.db #0x15	; 21
	.db #0x19	; 25
	.db #0x0a	; 10
	.db #0x0c	; 12
	.db #0x8a	; 138
	.db #0x0c	; 12
	.db #0x45	; 69	'E'
	.db #0x86	; 134
	.db #0x8c	; 140
	.db #0x7c	; 124
	.db #0x70	; 112	'p'
	.db #0xf0	; 240
	.db #0x80	; 128
	.db #0x80	; 128
	.db #0x00	; 0
	.db #0x00	; 0
	.db #0x00	; 0
	.db #0x00	; 0
	.db #0x90	; 144
	.db #0x80	; 128
	.db #0xe8	; 232
	.db #0xd7	; 215
	.db #0x14	; 20
	.db #0x2b	; 43
	.db #0x00	; 0
	.db #0x00	; 0
	.db #0xc0	; 192
	.db #0xc0	; 192
	.db #0x7f	; 127
	.db #0x7f	; 127
	.db #0xff	; 255
	.db #0x80	; 128
	.db #0x7f	; 127
	.db #0xff	; 255
	.db #0xc0	; 192
	.db #0xc0	; 192
	.db #0x00	; 0
	.db #0x00	; 0
	.db #0x00	; 0
	.db #0x00	; 0
	.db #0x48	; 72	'H'
	.db #0x58	; 88	'X'
	.db #0x90	; 144
	.db #0xb0	; 176
	.db #0x90	; 144
	.db #0xb0	; 176
	.db #0xf0	; 240
	.db #0x10	; 16
	.db #0xe0	; 224
	.db #0xe0	; 224
	.db #0x00	; 0
	.db #0x00	; 0
	.db #0x00	; 0
	.db #0x00	; 0
	.db #0x00	; 0
	.db #0x00	; 0
	.db #0x05	; 5
	.db #0x06	; 6
	.db #0x02	; 2
	.db #0x03	; 3
	.db #0x03	; 3
	.db #0x03	; 3
	.db #0x00	; 0
	.db #0x00	; 0
	.db #0x00	; 0
	.db #0x00	; 0
	.db #0x00	; 0
	.db #0x00	; 0
	.db #0x00	; 0
	.db #0x00	; 0
	.db #0x00	; 0
	.db #0x00	; 0
	.db #0xcc	; 204
	.db #0x30	; 48	'0'
	.db #0x14	; 20
	.db #0xe8	; 232
	.db #0xe8	; 232
	.db #0xd0	; 208
	.db #0x10	; 16
	.db #0x00	; 0
	.db #0x00	; 0
	.db #0x00	; 0
	.db #0x00	; 0
	.db #0x00	; 0
	.db #0x00	; 0
	.db #0x00	; 0
	.db #0x00	; 0
	.db #0x00	; 0
	.db #0x5c	; 92
	.db #0x63	; 99	'c'
	.db #0x21	; 33
	.db #0x3e	; 62
	.db #0x3e	; 62
	.db #0x3d	; 61
	.db #0x01	; 1
	.db #0x00	; 0
	.db #0x00	; 0
	.db #0x00	; 0
	.db #0x00	; 0
	.db #0x00	; 0
	.db #0x00	; 0
	.db #0x00	; 0
	.db #0x00	; 0
	.db #0x00	; 0
	.db #0xc5	; 197
	.db #0x06	; 6
	.db #0x42	; 66	'B'
	.db #0x83	; 131
	.db #0x83	; 131
	.db #0x03	; 3
	.db #0x00	; 0
	.db #0x00	; 0
	.db #0x00	; 0
	.db #0x00	; 0
	.db #0x00	; 0
	.db #0x00	; 0
	.db #0x00	; 0
	.db #0x00	; 0
	.db #0x00	; 0
	.db #0x00	; 0
	.db #0xcc	; 204
	.db #0x30	; 48	'0'
	.db #0x14	; 20
	.db #0xe8	; 232
	.db #0xe8	; 232
	.db #0xd0	; 208
	.db #0x10	; 16
	.db #0x00	; 0
	.db #0x00	; 0
	.db #0x00	; 0
	.db #0x00	; 0
	.db #0x00	; 0
	.db #0x00	; 0
	.db #0x00	; 0
	.db #0x00	; 0
	.db #0x00	; 0
_desertmap:
	.db #0x00	; 0
	.db #0x44	; 68	'D'
	.db #0x45	; 69	'E'
	.db #0x46	; 70	'F'
	.db #0x00	; 0
	.db #0x00	; 0
	.db #0x00	; 0
	.db #0x4e	; 78	'N'
	.db #0x4f	; 79	'O'
	.db #0x50	; 80	'P'
	.db #0x51	; 81	'Q'
	.db #0x52	; 82	'R'
	.db #0x53	; 83	'S'
	.db #0x54	; 84	'T'
	.db #0x55	; 85	'U'
	.db #0x00	; 0
	.db #0x00	; 0
	.db #0x00	; 0
	.db #0x00	; 0
	.db #0x60	; 96
	.db #0x00	; 0
	.db #0x00	; 0
	.db #0x4e	; 78	'N'
	.db #0x4f	; 79	'O'
	.db #0x50	; 80	'P'
	.db #0x51	; 81	'Q'
	.db #0x52	; 82	'R'
	.db #0x53	; 83	'S'
	.db #0x54	; 84	'T'
	.db #0x55	; 85	'U'
	.db #0x00	; 0
	.db #0x00	; 0
	.db #0x47	; 71	'G'
	.db #0x48	; 72	'H'
	.db #0x49	; 73	'I'
	.db #0x4a	; 74	'J'
	.db #0x4b	; 75	'K'
	.db #0x4c	; 76	'L'
	.db #0x4d	; 77	'M'
	.db #0x56	; 86	'V'
	.db #0x57	; 87	'W'
	.db #0x58	; 88	'X'
	.db #0x59	; 89	'Y'
	.db #0x5a	; 90	'Z'
	.db #0x5b	; 91
	.db #0x5c	; 92
	.db #0x5d	; 93
	.db #0x5e	; 94
	.db #0x5f	; 95
	.db #0x00	; 0
	.db #0x61	; 97	'a'
	.db #0x62	; 98	'b'
	.db #0x63	; 99	'c'
	.db #0x4d	; 77	'M'
	.db #0x56	; 86	'V'
	.db #0x57	; 87	'W'
	.db #0x58	; 88	'X'
	.db #0x59	; 89	'Y'
	.db #0x5a	; 90	'Z'
	.db #0x5b	; 91
	.db #0x5c	; 92
	.db #0x5d	; 93
	.db #0x5e	; 94
	.db #0x5f	; 95
	.db #0x3d	; 61
	.db #0x3d	; 61
	.db #0x43	; 67	'C'
	.db #0x3d	; 61
	.db #0x3d	; 61
	.db #0x3d	; 61
	.db #0x3d	; 61
	.db #0x3d	; 61
	.db #0x43	; 67	'C'
	.db #0x3d	; 61
	.db #0x3d	; 61
	.db #0x3d	; 61
	.db #0x3d	; 61
	.db #0x3d	; 61
	.db #0x43	; 67	'C'
	.db #0x3d	; 61
	.db #0x3d	; 61
	.db #0x3d	; 61
	.db #0x3d	; 61
	.db #0x43	; 67	'C'
	.db #0x3d	; 61
	.db #0x3d	; 61
	.db #0x3d	; 61
	.db #0x3d	; 61
	.db #0x3d	; 61
	.db #0x43	; 67	'C'
	.db #0x3d	; 61
	.db #0x3d	; 61
	.db #0x3d	; 61
	.db #0x3d	; 61
	.db #0x43	; 67	'C'
	.db #0x3d	; 61
	.db #0x3d	; 61
	.db #0x3d	; 61
	.db #0x3d	; 61
	.db #0x3d	; 61
	.db #0x3d	; 61
	.db #0x3d	; 61
	.db #0x3d	; 61
	.db #0x3d	; 61
	.db #0x3d	; 61
	.db #0x3d	; 61
	.db #0x3d	; 61
	.db #0x3d	; 61
	.db #0x3d	; 61
	.db #0x3d	; 61
	.db #0x3d	; 61
	.db #0x3d	; 61
	.db #0x3d	; 61
	.db #0x3d	; 61
	.db #0x3d	; 61
	.db #0x3d	; 61
	.db #0x3d	; 61
	.db #0x3d	; 61
	.db #0x3d	; 61
	.db #0x3d	; 61
	.db #0x3d	; 61
	.db #0x3d	; 61
	.db #0x3d	; 61
	.db #0x3d	; 61
	.db #0x3d	; 61
	.db #0x3d	; 61
	.db #0x3d	; 61
	.db #0x3d	; 61
	.db #0x42	; 66	'B'
	.db #0x3d	; 61
	.db #0x3d	; 61
	.db #0x3d	; 61
	.db #0x3d	; 61
	.db #0x42	; 66	'B'
	.db #0x3d	; 61
	.db #0x3d	; 61
	.db #0x3d	; 61
	.db #0x3d	; 61
	.db #0x3d	; 61
	.db #0x42	; 66	'B'
	.db #0x3d	; 61
	.db #0x3d	; 61
	.db #0x3d	; 61
	.db #0x3d	; 61
	.db #0x3d	; 61
	.db #0x42	; 66	'B'
	.db #0x3d	; 61
	.db #0x3d	; 61
	.db #0x3d	; 61
	.db #0x3d	; 61
	.db #0x42	; 66	'B'
	.db #0x3d	; 61
	.db #0x3d	; 61
	.db #0x3d	; 61
	.db #0x3d	; 61
	.db #0x42	; 66	'B'
	.db #0x3d	; 61
	.db #0x3d	; 61
	.db #0x3d	; 61
	.db #0x3d	; 61
	.db #0x3d	; 61
	.db #0x3d	; 61
	.db #0x3d	; 61
	.db #0x3d	; 61
	.db #0x3d	; 61
	.db #0x3d	; 61
	.db #0x3d	; 61
	.db #0x3d	; 61
	.db #0x3d	; 61
	.db #0x3d	; 61
	.db #0x3d	; 61
	.db #0x3d	; 61
	.db #0x3d	; 61
	.db #0x3d	; 61
	.db #0x3d	; 61
	.db #0x3d	; 61
	.db #0x3d	; 61
	.db #0x3d	; 61
	.db #0x3d	; 61
	.db #0x3d	; 61
	.db #0x3d	; 61
	.db #0x3d	; 61
	.db #0x3d	; 61
	.db #0x3d	; 61
	.db #0x3d	; 61
	.db #0x3d	; 61
	.db #0x3d	; 61
	.db #0x3d	; 61
	.db #0x3d	; 61
	.db #0x3d	; 61
	.db #0x3d	; 61
	.db #0x3d	; 61
	.db #0x3d	; 61
	.db #0x3d	; 61
	.db #0x3e	; 62
	.db #0x40	; 64
	.db #0x3d	; 61
	.db #0x3d	; 61
	.db #0x3d	; 61
	.db #0x3e	; 62
	.db #0x40	; 64
	.db #0x3d	; 61
	.db #0x3d	; 61
	.db #0x3d	; 61
	.db #0x3d	; 61
	.db #0x3e	; 62
	.db #0x40	; 64
	.db #0x3d	; 61
	.db #0x3d	; 61
	.db #0x3d	; 61
	.db #0x3d	; 61
	.db #0x3e	; 62
	.db #0x40	; 64
	.db #0x3d	; 61
	.db #0x3d	; 61
	.db #0x3d	; 61
	.db #0x3e	; 62
	.db #0x40	; 64
	.db #0x3d	; 61
	.db #0x3d	; 61
	.db #0x3d	; 61
	.db #0x3e	; 62
	.db #0x40	; 64
	.db #0x3d	; 61
	.db #0x3d	; 61
	.db #0x3d	; 61
	.db #0x3f	; 63
	.db #0x41	; 65	'A'
	.db #0x3d	; 61
	.db #0x3d	; 61
	.db #0x3d	; 61
	.db #0x3f	; 63
	.db #0x41	; 65	'A'
	.db #0x3d	; 61
	.db #0x3d	; 61
	.db #0x3d	; 61
	.db #0x3d	; 61
	.db #0x3f	; 63
	.db #0x41	; 65	'A'
	.db #0x3d	; 61
	.db #0x3d	; 61
	.db #0x3d	; 61
	.db #0x3d	; 61
	.db #0x3f	; 63
	.db #0x41	; 65	'A'
	.db #0x3d	; 61
	.db #0x3d	; 61
	.db #0x3d	; 61
	.db #0x3f	; 63
	.db #0x41	; 65	'A'
	.db #0x3d	; 61
	.db #0x3d	; 61
	.db #0x3d	; 61
	.db #0x3f	; 63
	.db #0x41	; 65	'A'
	.db #0x3d	; 61
	.db #0x3d	; 61
	.db #0x3d	; 61
	.db #0x3d	; 61
	.db #0x3d	; 61
	.db #0x3d	; 61
	.db #0x3d	; 61
	.db #0x3d	; 61
	.db #0x3d	; 61
	.db #0x3d	; 61
	.db #0x3d	; 61
	.db #0x3d	; 61
	.db #0x3d	; 61
	.db #0x3d	; 61
	.db #0x3d	; 61
	.db #0x3d	; 61
	.db #0x3d	; 61
	.db #0x3d	; 61
	.db #0x3d	; 61
	.db #0x3d	; 61
	.db #0x3d	; 61
	.db #0x3d	; 61
	.db #0x3d	; 61
	.db #0x3d	; 61
	.db #0x3d	; 61
	.db #0x3d	; 61
	.db #0x3d	; 61
	.db #0x3d	; 61
	.db #0x3d	; 61
	.db #0x3d	; 61
	.db #0x3d	; 61
	.db #0x3d	; 61
	.db #0x3d	; 61
_scorpbossmap:
	.db #0x21	; 33
	.db #0x21	; 33
	.db #0x21	; 33
	.db #0x21	; 33
	.db #0x64	; 100	'd'
	.db #0x65	; 101	'e'
	.db #0x66	; 102	'f'
	.db #0x67	; 103	'g'
	.db #0x21	; 33
	.db #0x00	; 0
	.db #0x68	; 104	'h'
	.db #0x69	; 105	'i'
	.db #0x00	; 0
	.db #0x00	; 0
	.db #0x00	; 0
	.db #0x6a	; 106	'j'
	.db #0x6b	; 107	'k'
	.db #0x6c	; 108	'l'
	.db #0x00	; 0
	.db #0x25	; 37
	.db #0x6d	; 109	'm'
	.db #0x6e	; 110	'n'
	.db #0x6f	; 111	'o'
	.db #0x70	; 112	'p'
	.db #0x71	; 113	'q'
	.db #0x72	; 114	'r'
	.db #0x73	; 115	's'
	.db #0x74	; 116	't'
	.db #0x75	; 117	'u'
	.db #0x76	; 118	'v'
	.db #0x77	; 119	'w'
	.db #0x78	; 120	'x'
	.db #0x79	; 121	'y'
	.db #0x7a	; 122	'z'
	.db #0x7b	; 123
	.db #0x7c	; 124
	.db #0x7d	; 125
	.db #0x7e	; 126
	.db #0x7f	; 127
	.db #0x80	; 128
	.db #0x81	; 129
	.db #0x82	; 130
	.db #0x83	; 131
	.db #0x84	; 132
	.db #0x28	; 40
	.db #0x00	; 0
	.db #0x85	; 133
	.db #0x86	; 134
	.db #0x87	; 135
	.db #0x88	; 136
	.db #0x89	; 137
	.db #0x8a	; 138
	.db #0x8b	; 139
	.db #0x00	; 0
_scorpgunprops:
	.db #0x01	;  1
	.db #0x0a	;  10
	.db #0x01	;  1
	.db #0x00	;  0
	.db #0x08	;  8
	.db #0x08	;  8
	.db #0xfd	; -3
	.db #0x01	;  1
	.db #0x06	;  6
	.db #0x00	;  0
_stingprops:
	.db #0x01	;  1
	.db #0x0a	;  10
	.db #0x01	;  1
	.db #0x00	;  0
	.db #0x08	;  8
	.db #0x0d	;  13
	.db #0x01	;  1
	.db #0x00	;  0
	.db #0x06	;  6
	.db #0x00	;  0
_stage1road:
	.db #0x32	; 50	'2'
	.db #0x1e	; 30
	.db #0x5f	; 95
	.db #0x19	; 25
	.db #0x6e	; 110	'n'
	.db #0x19	; 25
	.db #0xa0	; 160
	.db #0x19	; 25
	.db #0x6e	; 110	'n'
	.db #0x23	; 35
	.db #0x0a	; 10
	.db #0x0a	; 10
	.db #0x0a	; 10
	.db #0x0a	; 10
	.db #0x0a	; 10
	.db #0x0a	; 10
	.db #0x46	; 70	'F'
_stage1objs:
	.db #0x02	; 2
	.db #0x32	; 50	'2'
	.db #0xa7	; 167
	.db #0x72	; 114	'r'
	.db #0x00	; 0
	.db #0x04	; 4
	.db #0x14	; 20
	.db #0xa7	; 167
	.db #0x62	; 98	'b'
	.db #0x00	; 0
	.db #0x04	; 4
	.db #0x28	; 40
	.db #0xa7	; 167
	.db #0x82	; 130
	.db #0x00	; 0
	.db #0x04	; 4
	.db #0x3c	; 60
	.db #0xa7	; 167
	.db #0x72	; 114	'r'
	.db #0x00	; 0
	.db #0x06	; 6
	.db #0x14	; 20
	.db #0xa7	; 167
	.db #0x82	; 130
	.db #0x00	; 0
	.db #0x06	; 6
	.db #0x28	; 40
	.db #0xa7	; 167
	.db #0x37	; 55	'7'
	.db #0x01	; 1
	.db #0x06	; 6
	.db #0x3c	; 60
	.db #0xa7	; 167
	.db #0x62	; 98	'b'
	.db #0x00	; 0
	.db #0x06	; 6
	.db #0x50	; 80	'P'
	.db #0xa7	; 167
	.db #0x37	; 55	'7'
	.db #0x01	; 1
	.db #0x06	; 6
	.db #0x64	; 100	'd'
	.db #0xa7	; 167
	.db #0x72	; 114	'r'
	.db #0x00	; 0
	.db #0x08	; 8
	.db #0x1e	; 30
	.db #0xa7	; 167
	.db #0x82	; 130
	.db #0x00	; 0
	.db #0x08	; 8
	.db #0x28	; 40
	.db #0xa7	; 167
	.db #0x37	; 55	'7'
	.db #0x01	; 1
	.db #0x08	; 8
	.db #0x32	; 50	'2'
	.db #0xa7	; 167
	.db #0x62	; 98	'b'
	.db #0x00	; 0
	.db #0x08	; 8
	.db #0x3c	; 60
	.db #0xa7	; 167
	.db #0x72	; 114	'r'
	.db #0x00	; 0
	.db #0x08	; 8
	.db #0x46	; 70	'F'
	.db #0xa7	; 167
	.db #0x37	; 55	'7'
	.db #0x01	; 1
	.db #0x08	; 8
	.db #0x50	; 80	'P'
	.db #0xa7	; 167
	.db #0x72	; 114	'r'
	.db #0x00	; 0
	.db #0x09	; 9
	.db #0x10	; 16
	.db #0xa7	; 167
	.db #0x85	; 133
	.db #0x03	; 3
	.db #0x10	; 16
	.db #0x14	; 20
	.db #0xa7	; 167
	.db #0x72	; 114	'r'
	.db #0x00	; 0
	.db #0x10	; 16
	.db #0x1e	; 30
	.db #0xa7	; 167
	.db #0x37	; 55	'7'
	.db #0x01	; 1
;stages/stage1.c:56: void init_scorpboss() BANKED {
;	---------------------------------
; Function init_scorpboss
; ---------------------------------
	b_init_scorpboss	= 2
_init_scorpboss::
;stages/stage1.c:57: set_bkg_data(100, 40, scorpbosstiles);
	ld	hl, #_scorpbosstiles
	push	hl
	ld	de, #0x2864
	push	de
	call	_set_bkg_data
	add	sp, #4
;stages/stage1.c:58: set_bkg_tiles(11, 10, 9, 6, scorpbossmap);
	ld	hl, #_scorpbossmap
	push	hl
	ld	de, #0x0609
	push	de
	ld	de, #0x0a0b
	push	de
	call	_set_bkg_tiles
	add	sp, #6
;stages/stage1.c:59: set_sprite_data(20, 8, bossspritetiles);
	ld	hl, #_bossspritetiles
	push	hl
	ld	de, #0x0814
	push	de
	call	_set_sprite_data
	add	sp, #4
;stages/stage1.c:62: init_machine_props(121, 96, stingprops);
	ld	hl, #_stingprops
	push	hl
	ld	de, #0x6079
	push	de
	call	_init_machine_props
	add	sp, #4
;stages/stage1.c:63: set_machine_tile(crntenemy - 1, 127);
	ld	hl, #_crntenemy
	ld	a, (hl)
	add	a, #0xef
	ld	c, a
	inc	hl
	ld	a, (hl)
	adc	a, #0xff
	ld	b, a
	ld	a, #0x7f
	push	af
	inc	sp
	push	bc
	call	_set_machine_tile
	add	sp, #3
;stages/stage1.c:64: set_sprite_tile((crntenemy - 1)->oamtilenums[0], 20);
	ld	hl, #_crntenemy
	ld	a, (hl)
	add	a, #0xef
	ld	c, a
	inc	hl
	ld	a, (hl)
	adc	a, #0xff
	ld	b, a
	ld	hl, #0x000d
	add	hl, bc
	ld	e, (hl)
;F:/Game_Boy_Dev_Tools/gbdk/include/gb/gb.h:1145: shadow_OAM[nb].tile=tile;
	ld	bc, #_shadow_OAM+0
	xor	a, a
	ld	l, e
	ld	h, a
	add	hl, hl
	add	hl, hl
	add	hl, bc
	inc	hl
	inc	hl
	ld	(hl), #0x14
;stages/stage1.c:65: set_sprite_tile((crntenemy - 1)->oamtilenums[2], 21);
	ld	hl, #_crntenemy
	ld	a, (hl)
	add	a, #0xef
	ld	c, a
	inc	hl
	ld	a, (hl)
	adc	a, #0xff
	ld	b, a
	ld	hl, #0x000f
	add	hl, bc
	ld	e, (hl)
;F:/Game_Boy_Dev_Tools/gbdk/include/gb/gb.h:1145: shadow_OAM[nb].tile=tile;
	ld	bc, #_shadow_OAM+0
	xor	a, a
	ld	l, e
	ld	h, a
	add	hl, hl
	add	hl, hl
	add	hl, bc
	inc	hl
	inc	hl
	ld	(hl), #0x15
;stages/stage1.c:66: place_machine(crntenemy - 1, 121, 96);
	ld	hl, #_crntenemy
	ld	a, (hl)
	add	a, #0xef
	ld	c, a
	inc	hl
	ld	a, (hl)
	adc	a, #0xff
	ld	b, a
	ld	de, #0x6079
	push	de
	push	bc
	call	_place_machine
	add	sp, #4
;stages/stage1.c:69: init_scorpboss_gun(100, 105);
	ld	de, #0x6964
	push	de
	ld	e, #b_init_scorpboss_gun
	ld	hl, #_init_scorpboss_gun
	call	___sdcc_bcall_ehl
	add	sp, #2
;stages/stage1.c:72: init_scorpboss_gun(96, 136);
	ld	de, #0x8860
	push	de
	ld	e, #b_init_scorpboss_gun
	ld	hl, #_init_scorpboss_gun
	call	___sdcc_bcall_ehl
	add	sp, #2
;stages/stage1.c:73: }
	ret
;stages/stage1.c:76: void scorpboss_loop() BANKED {
;	---------------------------------
; Function scorpboss_loop
; ---------------------------------
	b_scorpboss_loop	= 2
_scorpboss_loop::
	add	sp, #-6
;stages/stage1.c:77: UINT8 pattrn = 0, firedbull = 0, explidx = 0, gunidx;
	xor	a, a
	ldhl	sp,	#4
	ld	(hl), a
	xor	a, a
	inc	hl
	ld	(hl), a
;stages/stage1.c:78: while(1) {
00163$:
;stages/stage1.c:80: if(pllives == 0 && pl->explcount == 0) {
	ld	hl, #_pl
	ld	a, (hl+)
	ld	e, (hl)
	ldhl	sp,	#0
	ld	(hl+), a
	ld	(hl), e
;c
	pop	de
	push	de
	ld	hl, #0x0007
	add	hl, de
	push	hl
	ld	a, l
	ldhl	sp,	#4
	ld	(hl), a
	pop	hl
	ld	a, h
	ldhl	sp,	#3
	ld	(hl), a
	ld	a, (#_pllives)
	or	a, a
	jr	NZ, 00102$
	ldhl	sp,#2
	ld	a, (hl+)
	ld	e, a
	ld	d, (hl)
	ld	a, (de)
	or	a, a
	jp	Z, 00165$
;stages/stage1.c:81: break;  // Game over
00102$:
;stages/stage1.c:84: if(pl->x + pl->width > 98 && pl->y + pl->height > 95 && pl->explcount == 0 && bossclearflg == 0) {
	pop	hl
	push	hl
	inc	hl
	ld	c, (hl)
	ld	b, #0x00
;c
	pop	de
	push	de
	ld	hl, #0x0005
	add	hl, de
	ld	e, l
	ld	d, h
	ld	a, (de)
	ld	l, a
	ld	h, #0x00
	add	hl, bc
	ld	e, h
	ld	d, #0x00
	ld	a, #0x62
	cp	a, l
	ld	a, #0x00
	sbc	a, h
	bit	7, e
	jr	Z, 00334$
	bit	7, d
	jr	NZ, 00335$
	cp	a, a
	jr	00335$
00334$:
	bit	7, d
	jr	Z, 00335$
	scf
00335$:
	jr	NC, 00105$
	pop	hl
	push	hl
	inc	hl
	inc	hl
	ld	c, (hl)
	ld	b, #0x00
;c
	pop	de
	push	de
	ld	hl, #0x0006
	add	hl, de
	ld	e, l
	ld	d, h
	ld	a, (de)
	ld	h, #0x00
	ld	l, a
	add	hl, bc
	ld	e, h
	ld	d, #0x00
	ld	a, #0x5f
	cp	a, l
	ld	a, #0x00
	sbc	a, h
	bit	7, e
	jr	Z, 00336$
	bit	7, d
	jr	NZ, 00337$
	cp	a, a
	jr	00337$
00336$:
	bit	7, d
	jr	Z, 00337$
	scf
00337$:
	jr	NC, 00105$
	ldhl	sp,#2
	ld	a, (hl+)
	ld	e, a
	ld	d, (hl)
	ld	a, (de)
	or	a, a
	jr	NZ, 00105$
	ld	a, (#_bossclearflg)
	or	a, a
	jr	NZ, 00105$
;stages/stage1.c:85: take_damage(pl, pl->shield);    // Collision with boss bkg
;c
	pop	de
	push	de
	ld	hl, #0x000b
	add	hl, de
	ld	c, l
	ld	b, h
	ld	a, (bc)
	push	af
	inc	sp
	ld	hl, #_pl
	ld	a, (hl+)
	ld	h, (hl)
	ld	l, a
	push	hl
	call	_take_damage
	add	sp, #3
00105$:
;stages/stage1.c:88: if(pattrn == 0) {  // Initial time for the player to adjust before boss attacks
	ldhl	sp,	#4
	ld	a, (hl)
	or	a, a
	jr	NZ, 00112$
;stages/stage1.c:89: if(cooldown_enemy(machines + 1, 0)) {
	xor	a, a
	push	af
	inc	sp
	ld	hl, #(_machines + 0x0011)
	push	hl
	call	_cooldown_enemy
	add	sp, #3
	ld	a, e
	or	a, a
	jr	Z, 00112$
;stages/stage1.c:90: pattrn = 1;
	ldhl	sp,	#4
	ld	(hl), #0x01
00112$:
;stages/stage1.c:94: gunidx = pattrn == 1 ? 2 : 3; // Set gun to be fired depending on pattern num
	ldhl	sp,	#4
	ld	a, (hl)
	dec	a
	ld	a, #0x01
	jr	Z, 00339$
	xor	a, a
00339$:
	ldhl	sp,	#1
	ld	(hl), a
	or	a, a
	jr	Z, 00167$
	inc	hl
	ld	(hl), #0x02
	xor	a, a
	inc	hl
	ld	(hl), a
	jr	00168$
00167$:
	ldhl	sp,	#2
	ld	(hl), #0x03
	xor	a, a
	inc	hl
	ld	(hl), a
00168$:
	ldhl	sp,	#2
	ld	a, (hl+)
;stages/stage1.c:95: if(pattrn == 1 || pattrn == 2) {  // Fire top or bottom gun
	ld	(hl-), a
	dec	hl
	ld	a, (hl)
	or	a, a
	jr	NZ, 00143$
	ldhl	sp,	#4
	ld	a, (hl)
	sub	a, #0x02
	jp	NZ,00144$
00143$:
;stages/stage1.c:96: if(is_alive(machines + gunidx) && firedbull != 3) {
	ldhl	sp,	#3
	ld	c, (hl)
	ld	b, #0x00
	ld	l, c
	ld	h, b
	add	hl, hl
	add	hl, hl
	add	hl, hl
	add	hl, hl
	add	hl, bc
	push	hl
	ld	a, l
	ldhl	sp,	#4
	ld	(hl), a
	pop	hl
	ld	a, h
	ldhl	sp,	#3
;c
	ld	(hl-), a
	ld	a, (hl+)
	ld	e, a
	ld	d, (hl)
	ld	hl, #_machines
	add	hl, de
	inc	sp
	inc	sp
	push	hl
	ldhl	sp,	#0
	ld	a, (hl+)
	ld	e, (hl)
	inc	hl
	ld	(hl+), a
	ld	(hl), e
	pop	bc
	pop	hl
	push	hl
	push	bc
	push	hl
	call	_is_alive
	add	sp, #2
	ld	a, e
	or	a, a
	jr	Z, 00118$
	ldhl	sp,	#5
	ld	a, (hl)
	sub	a, #0x03
	jr	Z, 00118$
;stages/stage1.c:97: if(cooldown_enemy(machines + gunidx, 20)) {
	ldhl	sp,	#0
	ld	a, (hl+)
	ld	e, (hl)
	inc	hl
	ld	(hl+), a
	ld	(hl), e
	ld	a, #0x14
	push	af
	inc	sp
	dec	hl
	ld	a, (hl+)
	ld	h, (hl)
	ld	l, a
	push	hl
	call	_cooldown_enemy
	add	sp, #3
	push	hl
	ldhl	sp,	#5
	ld	(hl), e
	pop	hl
	ldhl	sp,	#3
	ld	a, (hl)
	or	a, a
	jp	Z, 00145$
;stages/stage1.c:98: fire_bigbullet(machines + gunidx, -2, 0);
	ldhl	sp,	#0
	ld	a, (hl+)
	ld	e, (hl)
	inc	hl
	ld	(hl+), a
	ld	(hl), e
	xor	a, a
	ld	d,a
	ld	e,#0xfe
	push	de
	dec	hl
	ld	a, (hl+)
	ld	h, (hl)
	ld	l, a
	push	hl
	call	_fire_bigbullet
	add	sp, #4
;stages/stage1.c:99: firedbull++;
	ldhl	sp,	#5
	inc	(hl)
	jp	00145$
00118$:
;stages/stage1.c:101: } else if(cooldown_enemy(machines + gunidx, 30)) {  // Cooldown until next attack
	ldhl	sp,	#0
	ld	a, (hl+)
	ld	e, (hl)
	inc	hl
	ld	(hl+), a
	ld	(hl), e
	ld	a, #0x1e
	push	af
	inc	sp
	dec	hl
	ld	a, (hl+)
	ld	h, (hl)
	ld	l, a
	push	hl
	call	_cooldown_enemy
	add	sp, #3
	ld	a, e
	or	a, a
	jp	Z, 00145$
;stages/stage1.c:102: firedbull = 0;
	xor	a, a
	ldhl	sp,	#5
;stages/stage1.c:103: pattrn++;
	ld	(hl-), a
	inc	(hl)
	jp	00145$
00144$:
;stages/stage1.c:105: } else if(pattrn == 3) {  // Stinger pattern
	ldhl	sp,	#4
	ld	a, (hl)
	sub	a, #0x03
	jp	NZ,00145$
;stages/stage1.c:106: if(is_alive(machines + 1)) {
	ld	hl, #(_machines + 0x0011)
	push	hl
	call	_is_alive
	add	sp, #2
	ld	a, e
	or	a, a
	jp	Z, 00139$
;stages/stage1.c:107: machines[1].groundflg = pl->groundflg;
	ld	hl, #_pl + 1
	dec	hl
	ld	a, (hl+)
	ld	c, a
	ld	b, (hl)
	ld	a, (bc)
	ld	(#(_machines + 0x0011)),a
;stages/stage1.c:108: if(machines[1].cyccount == 0) {
	ld	a, (#(_machines + 0x0019) + 0)
	ldhl	sp,	#3
	ld	(hl), a
	ldhl	sp,	#3
	ld	a, (hl)
	or	a, a
	jr	NZ, 00136$
;stages/stage1.c:109: move_enemy(machines + 1, -2, 2);
	ld	de, #0x02fe
	push	de
	ld	hl, #(_machines + 0x0011)
	push	hl
	call	_move_enemy
	add	sp, #4
;stages/stage1.c:110: if(machines[1].y == 114) { // Rewrite
	ld	a, (#(_machines + 0x0013) + 0)
	sub	a, #0x72
	jr	NZ, 00145$
;stages/stage1.c:111: machines[1].cyccount++;
	ld	a, (#(_machines + 0x0019) + 0)
	inc	a
	ld	(#(_machines + 0x0019)),a
	jr	00145$
00136$:
;stages/stage1.c:113: } else if(machines[1].cyccount == 1) {
	ldhl	sp,	#3
	ld	a, (hl)
	dec	a
	jr	NZ, 00133$
;stages/stage1.c:114: move_enemy(machines + 1, -4, 0);
	xor	a, a
	ld	d,a
	ld	e,#0xfc
	push	de
	ld	hl, #(_machines + 0x0011)
	push	hl
	call	_move_enemy
	add	sp, #4
;stages/stage1.c:115: if(machines[1].x < 16) {
	ld	a, (#(_machines + 0x0012) + 0)
	sub	a, #0x10
	jr	NC, 00145$
;stages/stage1.c:116: machines[1].cyccount++;
	ld	a, (#(_machines + 0x0019) + 0)
	inc	a
	ld	(#(_machines + 0x0019)),a
	jr	00145$
00133$:
;stages/stage1.c:118: } else if(machines[1].cyccount == 2) {
	ldhl	sp,	#3
	ld	a, (hl)
	sub	a, #0x02
	jr	NZ, 00130$
;stages/stage1.c:119: move_enemy(machines + 1, 2, -2);
	ld	de, #0xfe02
	push	de
	ld	hl, #(_machines + 0x0011)
	push	hl
	call	_move_enemy
	add	sp, #4
;stages/stage1.c:120: if(machines[1].y == 96) {
	ld	a, (#(_machines + 0x0013) + 0)
	sub	a, #0x60
	jr	NZ, 00145$
;stages/stage1.c:121: machines[1].cyccount++;
	ld	a, (#(_machines + 0x0019) + 0)
	inc	a
	ld	(#(_machines + 0x0019)),a
	jr	00145$
00130$:
;stages/stage1.c:124: move_enemy(machines + 1, 4, 0);
	xor	a, a
	ld	d,a
	ld	e,#0x04
	push	de
	ld	hl, #(_machines + 0x0011)
	push	hl
	call	_move_enemy
	add	sp, #4
;stages/stage1.c:125: if(machines[1].x == 121) {
	ld	a, (#(_machines + 0x0012) + 0)
	sub	a, #0x79
	jr	NZ, 00145$
;stages/stage1.c:126: machines[1].cyccount = 0;
	ld	hl, #(_machines + 0x0019)
	ld	(hl), #0x00
;stages/stage1.c:127: pattrn = 1;  // Reset boss pattern
	ldhl	sp,	#4
	ld	(hl), #0x01
	jr	00145$
00139$:
;stages/stage1.c:131: pattrn = 1;
	ldhl	sp,	#4
	ld	(hl), #0x01
00145$:
;stages/stage1.c:135: manage_projectiles();
	call	_manage_projectiles
;stages/stage1.c:136: manage_machines();
	call	_manage_machines
;stages/stage1.c:138: if(bossclearflg == 0 && (!(is_alive(machines + 1) || is_alive(machines + 2) || is_alive(machines + 3))) ) {
	ld	a, (#_bossclearflg)
	or	a, a
	jr	NZ, 00148$
	ld	hl, #(_machines + 0x0011)
	push	hl
	call	_is_alive
	add	sp, #2
	ld	a, e
	or	a, a
	jr	NZ, 00148$
	ld	hl, #(_machines + 0x0022)
	push	hl
	call	_is_alive
	add	sp, #2
	ld	a, e
	or	a, a
	jr	NZ, 00148$
	ld	hl, #(_machines + 0x0033)
	push	hl
	call	_is_alive
	add	sp, #2
	ld	a, e
	or	a, a
	jr	NZ, 00148$
;stages/stage1.c:139: bossclearflg = 1;
	ld	hl, #_bossclearflg
	ld	(hl), #0x01
00148$:
;stages/stage1.c:142: if(bossclearflg == 1 && machines[1].explcount == 0 && machines[2].explcount == 0 && machines[3].explcount == 0 ) {
	ld	a, (#_bossclearflg)
	dec	a
	jr	NZ, 00158$
	ld	a, (#(_machines + 0x0018) + 0)
	or	a, a
	jr	NZ, 00158$
	ld	a, (#(_machines + 0x0029) + 0)
	or	a, a
	jr	NZ, 00158$
	ld	a, (#(_machines + 0x003a) + 0)
	or	a, a
	jr	NZ, 00158$
;stages/stage1.c:143: if(lockmvmnt == 2) {    // Wait until the end of the jumping animation
	ld	a, (#_lockmvmnt)
	sub	a, #0x02
	jr	NZ, 00155$
;stages/stage1.c:144: anim_jump();
	call	_anim_jump
	jr	00158$
00155$:
;stages/stage1.c:145: } else if(pl->explcount == 0) {
	ld	hl, #_pl + 1
	dec	hl
	ld	a, (hl+)
	ld	c, a
	ld	b, (hl)
	ld	hl, #0x0007
	add	hl, bc
	ld	a, (hl)
	or	a, a
	jr	NZ, 00158$
;stages/stage1.c:146: clear_all_projectiles();
	call	_clear_all_projectiles
;stages/stage1.c:147: break;  // Boss cleared
	jr	00165$
00158$:
;stages/stage1.c:151: manage_sound_chnls();
	call	_manage_sound_chnls
;stages/stage1.c:152: manage_player();
	call	_manage_player
;stages/stage1.c:153: wait_vbl_done();
	call	_wait_vbl_done
	jp	00163$
00165$:
;stages/stage1.c:155: }
	add	sp, #6
	ret
	.area _CODE_2
	.area _CABS (ABS)
